Microchip MPLAB XC8 Compiler V2.36

Linker command line:

-W-3 --edf=C:\Program Files\Microchip\xc8\v2.36\pic\dat\en_msgs.txt -cn \
  -h+dist/default/production\DetectorDeFrutas.X.production.sym \
  --cmf=dist/default/production\DetectorDeFrutas.X.production.cmf -z \
  -Q16F628A -oC:\Users\tomas\AppData\Local\Temp\xcAs7bc.4 \
  --defsym=__MPLAB_BUILD=1 \
  -Mdist/default/production/DetectorDeFrutas.X.production.map \
  --md=C:\Users\tomas\AppData\Local\Temp\xcAs7bc.dat -E1 -ver=XC8 Compiler \
  --acfsm=1493 -ACODE=00h-07FFh -ASTRCODE=00h-07FFh -ASTRING=00h-0FFhx8 \
  -ACONST=00h-0FFhx8 -AENTRY=00h-0FFhx8 -ACOMMON=070h-07Fh \
  -ABANK0=020h-06Fh -ABANK1=0A0h-0EFh -ABANK2=0120h-014Fh \
  -ARAM=020h-06Fh,0A0h-0EFh,0120h-014Fh \
  -AABS1=020h-07Fh,0A0h-0EFh,0120h-014Fh -ASFR0=00h-01Fh -ASFR1=080h-09Fh \
  -ASFR2=0100h-011Fh -ASFR3=0180h-01EFh -ACONFIG=02007h-02007h -DCONFIG=2 \
  -AIDLOC=02000h-02003h -DIDLOC=2 -AEEDATA=00h-07Fh/02100h \
  -peeprom_data=EEDATA -DEEDATA=2 -DCODE=2 -DSTRCODE=2 -DSTRING=2 -DCONST=2 \
  -DENTRY=2 -preset_vec=00h,intentry,init,end_init -ppowerup=CODE \
  -pcinit=CODE -pfunctab=ENTRY -k \
  C:\Users\tomas\AppData\Local\Temp\xcAs7bc.o \
  dist/default/production\DetectorDeFrutas.X.production.o 

Object code version is 3.11

Machine type is 16F628A



                Name                               Link     Load   Length Selector   Space Scale
C:\Users\tomas\AppData\Local\Temp\xcAs7bc.o
                end_init                              0        0        1        0       0
                config                             2007     2007        1        0       4
                idloc                              2000     2000        4        0       5
dist/default/production\DetectorDeFrutas.X.production.o
                cinit                               7FE      7FE        2      FFC       0
                config                             2007     2007        1        0       4
                idloc                              2000     2000        4        0       5
                text7                               663      663        D      CC6       0
                text6                               64C      64C        B      C98       0
                text5                               657      657        C      CAE       0
                text4                               68E      68E       28      D1C       0
                text3                               6B6      6B6       66      D6C       0
                text2                               71C      71C       68      E38       0
                text1                               670      670       1E      CE0       0
                maintext                            784      784       7A      F08       0
                cstackBANK0                          20       20        C       20       1
                cstackCOMMON                         70       70        E       70       1
                strings                               1        1       31        2       0

TOTAL           Name                               Link     Load   Length     Space
        CLASS   CODE           
                end_init                              0        0        1         0
                cinit                               7FE      7FE        2         0
                text7                               663      663        D         0
                text6                               64C      64C        B         0
                text5                               657      657        C         0
                text4                               68E      68E       28         0
                text3                               6B6      6B6       66         0
                text2                               71C      71C       68         0
                text1                               670      670       1E         0
                maintext                            784      784       7A         0

        CLASS   STRCODE        

        CLASS   STRING         
                strings                               1        1       31         0

        CLASS   CONST          

        CLASS   ENTRY          

        CLASS   COMMON         
                cstackCOMMON                         70       70        E         1

        CLASS   BANK0          
                cstackBANK0                          20       20        C         1

        CLASS   BANK1          

        CLASS   BANK2          

        CLASS   RAM            

        CLASS   ABS1           
                abs_s1                               7E       7E        2         1

        CLASS   SFR0           

        CLASS   SFR1           

        CLASS   SFR2           

        CLASS   SFR3           

        CLASS   CONFIG         
                config                             2007     2007        1         4

        CLASS   IDLOC          
                idloc                              2000     2000        4         5

        CLASS   EEDATA         

        CLASS   BANK3          

        CLASS   STACK          



SEGMENTS        Name                           Load    Length   Top    Selector   Space  Class     Delta

                reset_vec                      000000  000001  000001         0       0  CODE        2
                strings                        000001  000031  000032         2       0  STRING      2
                cstackBANK0                    000020  00000C  00002C        20       1  BANK0       1
                cstackCOMMON                   000070  00000E  00007E        70       1  COMMON      1
                text6                          00064C  00000B  000657       C98       0  CODE        2
                text5                          000657  00000C  000663       CAE       0  CODE        2
                text7                          000663  00000D  000670       CC6       0  CODE        2
                text1                          000670  00001E  00068E       CE0       0  CODE        2
                text4                          00068E  000028  0006B6       D1C       0  CODE        2
                text3                          0006B6  000066  00071C       D6C       0  CODE        2
                text2                          00071C  000068  000784       E38       0  CODE        2
                maintext                       000784  00007A  0007FE       F08       0  CODE        2
                cinit                          0007FE  000002  000800       FFC       0  CODE        2


UNUSED ADDRESS RANGES

        Name                Unused          Largest block    Delta
        BANK0            002C-006F             44           1
        BANK1            00A0-00EF             50           1
        BANK2            0120-014F             30           1
        CODE             0032-064B            61A           2
        CONST            0032-064B            100           2
        EEDATA           2100-217F             80           2
        ENTRY            0032-064B            100           2
        RAM              002C-006F             44           1
                         00A0-00EF             50
                         0120-014F             30
        SFR0             0000-001F             20           1
        SFR1             0080-009F             20           1
        SFR2             0100-011F             20           1
        SFR3             0180-01EF             70           1
        STRCODE          0032-064B            61A           2
        STRING           0032-064B            100           2

                                  Symbol Table

?_UARTDataReady           cstackCOMMON 0070
?___lldiv                 cstackCOMMON 0070
UARTInit@BRGH             cstackBANK0  0024
UARTInit@baud_rate        cstackBANK0  0020
UARTSendChar@c            cstackCOMMON 0070
UARTSendString@i          cstackCOMMON 0073
UARTSendString@max_length cstackCOMMON 0071
UARTSendString@str        cstackCOMMON 0075
_CMCONbits                (abs)        001F
_PIR1bits                 (abs)        000C
_PORTA                    (abs)        0005
_PORTB                    (abs)        0006
_PORTBbits                (abs)        0006
_RCREG                    (abs)        001A
_RCSTAbits                (abs)        0018
_SPBRG                    (abs)        0099
_TRISA                    (abs)        0085
_TRISB                    (abs)        0086
_TRISBbits                (abs)        0086
_TXREG                    (abs)        0019
_TXSTAbits                (abs)        0098
_UARTDataReady            text7        0663
_UARTInit                 text2        071C
_UARTReadChar             text6        064C
_UARTSendChar             text5        0657
_UARTSendString           text4        068E
__Habs1                   abs1         0000
__Hbank0                  bank0        0000
__Hbank1                  bank1        0000
__Hbank2                  bank2        0000
__Hbank3                  bank3        0000
__Hcinit                  cinit        0800
__Hclrtext                clrtext      0000
__Hcode                   code         0000
__Hcommon                 common       0000
__Hconfig                 config       2008
__HcstackBANK0            cstackBANK0  0000
__HcstackCOMMON           cstackCOMMON 0000
__Heeprom_data            eeprom_data  0000
__Hend_init               end_init     0001
__Hfunctab                functab      0000
__Hidloc                  idloc        2004
__Hinit                   init         0000
__Hintentry               intentry     0000
__Hmaintext               maintext     0000
__Hpowerup                powerup      0000
__Hram                    ram          0000
__Hreset_vec              reset_vec    0000
__Hsfr0                   sfr0         0000
__Hsfr1                   sfr1         0000
__Hsfr2                   sfr2         0000
__Hsfr3                   sfr3         0000
__Hspace_0                (abs)        0800
__Hspace_1                (abs)        007E
__Hspace_2                (abs)        0000
__Hspace_3                (abs)        0000
__Hspace_4                (abs)        400F
__Hstack                  stack        0000
__Hstrings                strings      0000
__Htext                   text         0000
__Labs1                   abs1         0000
__Lbank0                  bank0        0000
__Lbank1                  bank1        0000
__Lbank2                  bank2        0000
__Lbank3                  bank3        0000
__Lcinit                  cinit        07FE
__Lclrtext                clrtext      0000
__Lcode                   code         0000
__Lcommon                 common       0000
__Lconfig                 config       0000
__LcstackBANK0            cstackBANK0  0000
__LcstackCOMMON           cstackCOMMON 0000
__Leeprom_data            eeprom_data  0000
__Lend_init               end_init     0000
__Lfunctab                functab      0000
__Lidloc                  idloc        0000
__Linit                   init         0000
__Lintentry               intentry     0000
__Lmaintext               maintext     0000
__Lpowerup                powerup      0000
__Lram                    ram          0000
__Lreset_vec              reset_vec    0000
__Lsfr0                   sfr0         0000
__Lsfr1                   sfr1         0000
__Lsfr2                   sfr2         0000
__Lsfr3                   sfr3         0000
__Lspace_0                (abs)        0000
__Lspace_1                (abs)        0000
__Lspace_2                (abs)        0000
__Lspace_3                (abs)        0000
__Lspace_4                (abs)        0000
__Lstack                  stack        0000
__Lstrings                strings      0000
__Ltext                   text         0000
__S0                      (abs)        0800
__S1                      (abs)        007E
__S3                      (abs)        0000
___int_sp                 stack        0000
___latbits                (abs)        0000
___lldiv                  text3        06B6
___lldiv@counter          cstackCOMMON 007D
___lldiv@dividend         cstackCOMMON 0074
___lldiv@divisor          cstackCOMMON 0070
___lldiv@quotient         cstackCOMMON 0079
___sp                     stack        0000
___stackhi                (abs)        0000
___stacklo                (abs)        0000
__end_of_UARTDataReady    text7        0670
__end_of_UARTInit         text2        0784
__end_of_UARTReadChar     text6        0657
__end_of_UARTSendChar     text5        0663
__end_of_UARTSendString   text4        06B6
__end_of___lldiv          text3        071C
__end_of__initialization  cinit        07FE
__end_of__stringtab       strings      0007
__end_of_init             text1        068E
__end_of_main             maintext     07FE
__initialization          cinit        07FE
__pcstackBANK0            cstackBANK0  0020
__pcstackCOMMON           cstackCOMMON 0070
__pmaintext               maintext     0784
__pstrings                strings      0001
__ptext1                  text1        0670
__ptext2                  text2        071C
__ptext3                  text3        06B6
__ptext4                  text4        068E
__ptext5                  text5        0657
__ptext6                  text6        064C
__ptext7                  text7        0663
__stringbase              strings      0006
__stringtab               strings      0001
_init                     text1        0670
_main                     maintext     0784
btemp                     (abs)        007E
end_of_initialization     cinit        07FE
intlevel0                 functab      0000
intlevel1                 functab      0000
intlevel2                 functab      0000
intlevel3                 functab      0000
intlevel4                 functab      0000
intlevel5                 functab      0000
main@letra                cstackBANK0  002B
reset_vec                 reset_vec    0000
start                     init         0000
start_initialization      cinit        07FE
wtemp0                    (abs)        007E


MODULE INFORMATION

Module		Function		Class		Link	Load	Size
UART.c
		_UARTSendString		CODE           	068E	0000	40
		_UARTDataReady 		CODE           	0663	0000	13
		_UARTInit      		CODE           	071C	0000	104
		_UARTReadChar  		CODE           	064C	0000	11
		_UARTSendChar  		CODE           	0657	0000	12

UART.c estimated size: 180

C:\Program Files\Microchip\xc8\v2.36\pic\sources\c90\common\__lldiv.c
		___lldiv       		CODE           	06B6	0000	102

C:\Program Files\Microchip\xc8\v2.36\pic\sources\c90\common\__lldiv.c estimated size: 102

shared
		__stringtab    		STRING         	0001	0000	6
		__initialization		CODE           	07FE	0000	1

shared estimated size: 7

main.c
		_init          		CODE           	0670	0000	30
		_main          		CODE           	0784	0000	122

main.c estimated size: 152

