

Microchip MPLAB XC8 Assembler V2.36 build 20220127204148 
                                                                                               Fri Dec 09 12:57:50 2022

Microchip MPLAB XC8 C Compiler v2.36 (Free license) build 20220127204148 Og1 
     1                           	processor	16F628A
     2                           	pagewidth 120
     3                           	opt	flic
     4                           	psect	strings,global,class=STRING,delta=2,noexec
     5                           	psect	cinit,global,class=CODE,merge=1,delta=2
     6                           	psect	bssBANK0,global,class=BANK0,space=1,delta=1,noexec
     7                           	psect	clrtext,global,class=CODE,delta=2
     8                           	psect	cstackBANK1,global,class=BANK1,space=1,delta=1,noexec
     9                           	psect	cstackCOMMON,global,class=COMMON,space=1,delta=1,noexec
    10                           	psect	cstackBANK0,global,class=BANK0,space=1,delta=1,noexec
    11                           	psect	maintext,global,class=CODE,split=1,delta=2
    12                           	psect	text1,local,class=CODE,merge=1,delta=2
    13                           	psect	text2,local,class=CODE,merge=1,delta=2
    14                           	psect	text3,local,class=CODE,merge=1,delta=2,group=1
    15                           	psect	text4,local,class=CODE,merge=1,delta=2
    16                           	psect	text5,local,class=CODE,merge=1,delta=2
    17                           	psect	text6,local,class=CODE,merge=1,delta=2
    18                           	psect	text7,local,class=CODE,merge=1,delta=2
    19                           	psect	text8,local,class=CODE,merge=1,delta=2
    20                           	psect	text9,local,class=CODE,merge=1,delta=2
    21                           	psect	text10,local,class=CODE,merge=1,delta=2,group=1
    22                           	psect	text11,local,class=CODE,merge=1,delta=2,group=1
    23                           	psect	text12,local,class=CODE,merge=1,delta=2
    24                           	psect	intentry,global,class=CODE,delta=2
    25                           	psect	text13,local,class=CODE,merge=1,delta=2,group=1
    26                           	psect	text14,local,class=CODE,merge=1,delta=2,group=1
    27                           	psect	text15,local,class=CODE,merge=1,delta=2,group=1
    28                           	psect	text16,local,class=CODE,merge=1,delta=2,group=1
    29                           	psect	text17,local,class=CODE,merge=1,delta=2,group=1
    30                           	psect	idloc,global,abs,ovrld,class=IDLOC,space=5,delta=2,noexec
    31                           	psect	config,global,abs,ovrld,class=CONFIG,space=4,delta=2,noexec
    32                           	dabs	1,0x7E,2
    33  0000                     
    34                           ; Version 2.40
    35                           ; Generated 17/11/2021 GMT
    36                           ; 
    37                           ; Copyright © 2021, Microchip Technology Inc. and its subsidiaries ("Microchip")
    38                           ; All rights reserved.
    39                           ; 
    40                           ; This software is developed by Microchip Technology Inc. and its subsidiaries ("Microch
      +                          ip").
    41                           ; 
    42                           ; Redistribution and use in source and binary forms, with or without modification, are
    43                           ; permitted provided that the following conditions are met:
    44                           ; 
    45                           ;     1. Redistributions of source code must retain the above copyright notice, this lis
      +                          t of
    46                           ;        conditions and the following disclaimer.
    47                           ; 
    48                           ;     2. Redistributions in binary form must reproduce the above copyright notice, this 
      +                          list
    49                           ;        of conditions and the following disclaimer in the documentation and/or other
    50                           ;        materials provided with the distribution. Publication is not required when
    51                           ;        this file is used in an embedded application.
    52                           ; 
    53                           ;     3. Microchip's name may not be used to endorse or promote products derived from th
      +                          is
    54                           ;        software without specific prior written permission.
    55                           ; 
    56                           ; THIS SOFTWARE IS PROVIDED BY MICROCHIP "AS IS" AND ANY EXPRESS OR IMPLIED WARRANTIES,
    57                           ; INCLUDING, BUT NOT LIMITED TO, THE IMPLIED WARRANTIES OF MERCHANTABILITY AND FITNESS F
      +                          OR
    58                           ; PURPOSE ARE DISCLAIMED.  IN NO EVENT SHALL MICROCHIP BE LIABLE FOR ANY DIRECT, INDIREC
      +                          T,
    59                           ; INCIDENTAL, SPECIAL, EXEMPLARY, OR CONSEQUENTIAL DAMAGES (INCLUDING BUT NOT LIMITED TO
    60                           ; PROCUREMENT OF SUBSTITUTE GOODS OR SERVICES; LOSS OF USE, DATA OR PROFITS; OR BUSINESS
    61                           ; INTERRUPTION) HOWSOEVER CAUSED AND ON ANY THEORY OF LIABILITY, WHETHER IN CONTRACT, ST
      +                          RICT
    62                           ; LIABILITY, OR TORT (INCLUDING NEGLIGENCE OR OTHERWISE) ARISING IN ANY WAY OUT OF THE U
      +                          SE OF
    63                           ; THIS SOFTWARE, EVEN IF ADVISED OF THE POSSIBILITY OF SUCH DAMAGE.
    64                           ; 
    65                           ; 
    66                           ; Code-generator required, PIC16F628A Definitions
    67                           ; 
    68                           ; SFR Addresses
    69  0000                     	;# 
    70  0001                     	;# 
    71  0002                     	;# 
    72  0003                     	;# 
    73  0004                     	;# 
    74  0005                     	;# 
    75  0006                     	;# 
    76  000A                     	;# 
    77  000B                     	;# 
    78  000C                     	;# 
    79  000E                     	;# 
    80  000E                     	;# 
    81  000F                     	;# 
    82  0010                     	;# 
    83  0011                     	;# 
    84  0012                     	;# 
    85  0015                     	;# 
    86  0015                     	;# 
    87  0016                     	;# 
    88  0017                     	;# 
    89  0018                     	;# 
    90  0019                     	;# 
    91  001A                     	;# 
    92  001F                     	;# 
    93  0081                     	;# 
    94  0085                     	;# 
    95  0086                     	;# 
    96  008C                     	;# 
    97  008E                     	;# 
    98  0092                     	;# 
    99  0098                     	;# 
   100  0099                     	;# 
   101  009A                     	;# 
   102  009B                     	;# 
   103  009C                     	;# 
   104  009D                     	;# 
   105  009F                     	;# 
   106  0000                     	;# 
   107  0001                     	;# 
   108  0002                     	;# 
   109  0003                     	;# 
   110  0004                     	;# 
   111  0005                     	;# 
   112  0006                     	;# 
   113  000A                     	;# 
   114  000B                     	;# 
   115  000C                     	;# 
   116  000E                     	;# 
   117  000E                     	;# 
   118  000F                     	;# 
   119  0010                     	;# 
   120  0011                     	;# 
   121  0012                     	;# 
   122  0015                     	;# 
   123  0015                     	;# 
   124  0016                     	;# 
   125  0017                     	;# 
   126  0018                     	;# 
   127  0019                     	;# 
   128  001A                     	;# 
   129  001F                     	;# 
   130  0081                     	;# 
   131  0085                     	;# 
   132  0086                     	;# 
   133  008C                     	;# 
   134  008E                     	;# 
   135  0092                     	;# 
   136  0098                     	;# 
   137  0099                     	;# 
   138  009A                     	;# 
   139  009B                     	;# 
   140  009C                     	;# 
   141  009D                     	;# 
   142  009F                     	;# 
   143  0000                     	;# 
   144  0001                     	;# 
   145  0002                     	;# 
   146  0003                     	;# 
   147  0004                     	;# 
   148  0005                     	;# 
   149  0006                     	;# 
   150  000A                     	;# 
   151  000B                     	;# 
   152  000C                     	;# 
   153  000E                     	;# 
   154  000E                     	;# 
   155  000F                     	;# 
   156  0010                     	;# 
   157  0011                     	;# 
   158  0012                     	;# 
   159  0015                     	;# 
   160  0015                     	;# 
   161  0016                     	;# 
   162  0017                     	;# 
   163  0018                     	;# 
   164  0019                     	;# 
   165  001A                     	;# 
   166  001F                     	;# 
   167  0081                     	;# 
   168  0085                     	;# 
   169  0086                     	;# 
   170  008C                     	;# 
   171  008E                     	;# 
   172  0092                     	;# 
   173  0098                     	;# 
   174  0099                     	;# 
   175  009A                     	;# 
   176  009B                     	;# 
   177  009C                     	;# 
   178  009D                     	;# 
   179  009F                     	;# 
   180  0000                     	;# 
   181  0001                     	;# 
   182  0002                     	;# 
   183  0003                     	;# 
   184  0004                     	;# 
   185  0005                     	;# 
   186  0006                     	;# 
   187  000A                     	;# 
   188  000B                     	;# 
   189  000C                     	;# 
   190  000E                     	;# 
   191  000E                     	;# 
   192  000F                     	;# 
   193  0010                     	;# 
   194  0011                     	;# 
   195  0012                     	;# 
   196  0015                     	;# 
   197  0015                     	;# 
   198  0016                     	;# 
   199  0017                     	;# 
   200  0018                     	;# 
   201  0019                     	;# 
   202  001A                     	;# 
   203  001F                     	;# 
   204  0081                     	;# 
   205  0085                     	;# 
   206  0086                     	;# 
   207  008C                     	;# 
   208  008E                     	;# 
   209  0092                     	;# 
   210  0098                     	;# 
   211  0099                     	;# 
   212  009A                     	;# 
   213  009B                     	;# 
   214  009C                     	;# 
   215  009D                     	;# 
   216  009F                     	;# 
   217  0015                     _CCPR1L	set	21
   218  0016                     _CCPR1H	set	22
   219  0001                     _TMR0	set	1
   220  000B                     _INTCON	set	11
   221  0005                     _PORTAbits	set	5
   222  0006                     _PORTBbits	set	6
   223  0006                     _PORTB	set	6
   224  001F                     _CMCONbits	set	31
   225  0010                     _T1CONbits	set	16
   226  000F                     _TMR1H	set	15
   227  000E                     _TMR1L	set	14
   228  000B                     _INTCONbits	set	11
   229  0010                     _T1CON	set	16
   230  0017                     _CCP1CON	set	23
   231  001A                     _RCREG	set	26
   232  000C                     _PIR1bits	set	12
   233  0019                     _TXREG	set	25
   234  0018                     _RCSTAbits	set	24
   235  0081                     _OPTION_REGbits	set	129
   236  0085                     _TRISAbits	set	133
   237  008C                     _PIE1bits	set	140
   238  0086                     _TRISBbits	set	134
   239  0098                     _TXSTAbits	set	152
   240  0099                     _SPBRG	set	153
   241                           
   242                           	psect	strings
   243  0000'                    __pstrings:
   244  0000'                    stringtab:
   245  0000'                    __stringtab:
   246  0000'                    stringcode:	
   247                           ;	String table - string pointers are 1 byte each
   248                           
   249  0000'                    stringdir:
   250  0000' 3000'              	movlw	high stringdir
   251  0001' 008A               	movwf	10
   252  0002' 0804               	movf	4,w
   253  0003' 0A84               	incf	4,f
   254  0004' 0782               	addwf	2,f
   255  0005'                    __stringbase:
   256  0005' 3400               	retlw	0
   257  0006'                    __end_of__stringtab:
   258  0006'                    STR_1:
   259  0006' 3479               	retlw	121	;'y'
   260  0007' 3400               	retlw	0
   261  0008' 3400               	retlw	0
   262  0006'                    
   263                           	psect	cinit
   264  0000'                    start_initialization:	
   265                           ; #config settings
   266                           
   267  0000'                    __initialization:
   268                           
   269                           ; Clear objects allocated to BANK0
   270  0000' 1383               	bcf	3,7	;select IRP bank0
   271  0001' 3000'              	movlw	low __pbssBANK0
   272  0002' 0084               	movwf	4
   273  0003' 3000'              	movlw	low (__pbssBANK0+18)
   274  0004' 2000'              	fcall	clear_ram0
   275  0005'                    end_of_initialization:	
   276                           ;End of C runtime variable initialization code
   277                           
   278  0005'                    __end_of__initialization:
   279  0005' 0183               	clrf	3
   280  0006' 2800'              	ljmp	_main	;jump to C main() function
   281                           
   282                           	psect	bssBANK0
   283  0000'                    __pbssBANK0:
   284  0000'                    _data_s:
   285  0000'                    	ds	8
   286  0008'                    _frecuencia:
   287  0008'                    	ds	2
   288  000A'                    _valor_pasos:
   289  000A'                    	ds	2
   290  000C'                    _cont_sr:
   291  000C'                    	ds	2
   292  000E'                    _periodo:
   293  000E'                    	ds	4
   294                           
   295                           	psect	clrtext
   296  0000'                    clear_ram0:	
   297                           ;	Called with FSR containing the base address, and
   298                           ;	W with the last address+1
   299                           
   300  0000' 0064               	clrwdt	;clear the watchdog before getting into this loop
   301  0001'                    clrloop0:
   302  0001' 0180               	clrf	0	;clear RAM location pointed to by FSR
   303  0002' 0A84               	incf	4,f	;increment pointer
   304  0003' 0604               	xorwf	4,w	;XOR with final address
   305  0004' 1903               	btfsc	3,2	;have we reached the end yet?
   306  0005' 3400               	retlw	0	;all done for this memory range, return
   307  0006' 0604               	xorwf	4,w	;XOR again to restore value
   308  0007' 2801'              	goto	clrloop0	;do the next byte
   309                           
   310                           	psect	cstackBANK1
   311  0000'                    __pcstackBANK1:
   312  0000'                    ?_UARTDataReady:
   313  0000'                    ?___wmul:	
   314                           ; 2 bytes @ 0x0
   315                           
   316  0000'                    ?___lldiv:	
   317                           ; 2 bytes @ 0x0
   318                           
   319  0000'                    UARTSendChar@c:	
   320                           ; 4 bytes @ 0x0
   321                           
   322  0000'                    ___wmul@multiplier:	
   323                           ; 1 bytes @ 0x0
   324                           
   325  0000'                    ___lldiv@divisor:	
   326                           ; 2 bytes @ 0x0
   327                           
   328                           
   329                           ; 4 bytes @ 0x0
   330  0000'                    	ds	1
   331  0001'                    ?_UARTSendString:
   332  0001'                    UARTSendString@max_length:	
   333                           ; 1 bytes @ 0x1
   334                           
   335                           
   336                           ; 1 bytes @ 0x1
   337  0001'                    	ds	1
   338  0002'                    ??_UARTSendString:
   339  0002'                    ??_UARTDataReady:	
   340                           ; 1 bytes @ 0x2
   341                           
   342  0002'                    ___wmul@multiplicand:	
   343                           ; 1 bytes @ 0x2
   344                           
   345                           
   346                           ; 2 bytes @ 0x2
   347  0002'                    	ds	1
   348  0003'                    UARTSendString@str:
   349                           
   350                           ; 1 bytes @ 0x3
   351  0003'                    	ds	1
   352  0004'                    UARTSendString@i:
   353  0004'                    ___wmul@product:	
   354                           ; 2 bytes @ 0x4
   355                           
   356  0004'                    ___lldiv@dividend:	
   357                           ; 2 bytes @ 0x4
   358                           
   359                           
   360                           ; 4 bytes @ 0x4
   361  0004'                    	ds	2
   362  0006'                    ?___awdiv:
   363  0006'                    ___awdiv@divisor:	
   364                           ; 2 bytes @ 0x6
   365                           
   366                           
   367                           ; 2 bytes @ 0x6
   368  0006'                    	ds	2
   369  0008'                    ??___lldiv:
   370  0008'                    ___awdiv@dividend:	
   371                           ; 1 bytes @ 0x8
   372                           
   373                           
   374                           ; 2 bytes @ 0x8
   375  0008'                    	ds	1
   376  0009'                    ___lldiv@quotient:
   377                           
   378                           ; 4 bytes @ 0x9
   379  0009'                    	ds	1
   380  000A'                    ??___awdiv:
   381                           
   382                           ; 1 bytes @ 0xA
   383  000A'                    	ds	1
   384  000B'                    ___awdiv@counter:
   385                           
   386                           ; 1 bytes @ 0xB
   387  000B'                    	ds	1
   388  000C'                    ___awdiv@sign:
   389                           
   390                           ; 1 bytes @ 0xC
   391  000C'                    	ds	1
   392  000D'                    ___lldiv@counter:
   393  000D'                    ___awdiv@quotient:	
   394                           ; 1 bytes @ 0xD
   395                           
   396                           
   397                           ; 2 bytes @ 0xD
   398  000D'                    	ds	1
   399  000E'                    ?_UARTInit:
   400  000E'                    UARTInit@baud_rate:	
   401                           ; 1 bytes @ 0xE
   402                           
   403                           
   404                           ; 4 bytes @ 0xE
   405  000E'                    	ds	1
   406  000F'                    ??_Servo_8_Write:
   407                           
   408                           ; 1 bytes @ 0xF
   409  000F'                    	ds	3
   410  0012'                    UARTInit@BRGH:
   411  0012'                    Servo_8_Write@ang:	
   412                           ; 1 bytes @ 0x12
   413                           
   414                           
   415                           ; 1 bytes @ 0x12
   416  0012'                    	ds	1
   417  0013'                    ??_UARTInit:
   418                           
   419                           ; 1 bytes @ 0x13
   420  0013'                    	ds	4
   421  0017'                    ??_main:
   422                           
   423                           ; 1 bytes @ 0x17
   424  0017'                    	ds	3
   425  001A'                    main@letra:
   426                           
   427                           ; 1 bytes @ 0x1A
   428  001A'                    	ds	1
   429  001B'                    main@detect_on:
   430                           
   431                           ; 2 bytes @ 0x1B
   432  001B'                    	ds	2
   433  001D'                    main@contador:
   434                           
   435                           ; 2 bytes @ 0x1D
   436  001D'                    	ds	2
   437                           
   438                           	psect	cstackCOMMON
   439  0000'                    __pcstackCOMMON:
   440  0000'                    ?_Servo_Init:
   441  0000'                    ?_Servo_8_Write:	
   442                           ; 1 bytes @ 0x0
   443                           
   444  0000'                    ?_UARTSendChar:	
   445                           ; 1 bytes @ 0x0
   446                           
   447  0000'                    ?_UARTReadChar:	
   448                           ; 1 bytes @ 0x0
   449                           
   450  0000'                    ?_init:	
   451                           ; 1 bytes @ 0x0
   452                           
   453  0000'                    ?_main:	
   454                           ; 1 bytes @ 0x0
   455                           
   456  0000'                    ?_TMR0_ISR:	
   457                           ; 1 bytes @ 0x0
   458                           
   459  0000'                    ?__Umul8_16:	
   460                           ; 1 bytes @ 0x0
   461                           
   462  0000'                    ?___fldiv:	
   463                           ; 2 bytes @ 0x0
   464                           
   465  0000'                    ?___xxtofl:	
   466                           ; 4 bytes @ 0x0
   467                           
   468  0000'                    __Umul8_16@multiplicand:	
   469                           ; 4 bytes @ 0x0
   470                           
   471  0000'                    ___fldiv@a:	
   472                           ; 1 bytes @ 0x0
   473                           
   474  0000'                    ___xxtofl@val:	
   475                           ; 4 bytes @ 0x0
   476                           
   477                           
   478                           ; 4 bytes @ 0x0
   479  0000'                    	ds	2
   480  0002'                    ??__Umul8_16:
   481                           
   482                           ; 1 bytes @ 0x2
   483  0002'                    	ds	2
   484  0004'                    ??___xxtofl:
   485  0004'                    __Umul8_16@product:	
   486                           ; 1 bytes @ 0x4
   487                           
   488  0004'                    ___fldiv@b:	
   489                           ; 2 bytes @ 0x4
   490                           
   491                           
   492                           ; 4 bytes @ 0x4
   493  0004'                    	ds	2
   494  0006'                    __Umul8_16@word_mpld:
   495                           
   496                           ; 2 bytes @ 0x6
   497  0006'                    	ds	2
   498  0008'                    ??___fldiv:
   499  0008'                    __Umul8_16@multiplier:	
   500                           ; 1 bytes @ 0x8
   501                           
   502  0008'                    ___xxtofl@sign:	
   503                           ; 1 bytes @ 0x8
   504                           
   505                           
   506                           ; 1 bytes @ 0x8
   507  0008'                    	ds	1
   508  0009'                    ___xxtofl@exp:
   509                           
   510                           ; 1 bytes @ 0x9
   511  0009'                    	ds	1
   512  000A'                    ___xxtofl@arg:
   513                           
   514                           ; 4 bytes @ 0xA
   515  000A'                    	ds	4
   516                           
   517                           	psect	cstackBANK0
   518  0000'                    __pcstackBANK0:
   519  0000'                    ?___flmul:
   520  0000'                    ___fldiv@rem:	
   521                           ; 4 bytes @ 0x0
   522                           
   523  0000'                    ___flmul@b:	
   524                           ; 4 bytes @ 0x0
   525                           
   526                           
   527                           ; 4 bytes @ 0x0
   528  0000'                    	ds	4
   529  0004'                    ___fldiv@sign:
   530  0004'                    ___flmul@a:	
   531                           ; 1 bytes @ 0x4
   532                           
   533                           
   534                           ; 4 bytes @ 0x4
   535  0004'                    	ds	1
   536  0005'                    ___fldiv@new_exp:
   537                           
   538                           ; 2 bytes @ 0x5
   539  0005'                    	ds	2
   540  0007'                    ___fldiv@grs:
   541                           
   542                           ; 4 bytes @ 0x7
   543  0007'                    	ds	1
   544  0008'                    ??___flmul:
   545                           
   546                           ; 1 bytes @ 0x8
   547  0008'                    	ds	3
   548  000B'                    ___fldiv@bexp:
   549                           
   550                           ; 1 bytes @ 0xB
   551  000B'                    	ds	1
   552  000C'                    ___fldiv@aexp:
   553                           
   554                           ; 1 bytes @ 0xC
   555  000C'                    	ds	1
   556  000D'                    ?___fltol:
   557  000D'                    ___flmul@sign:	
   558                           ; 4 bytes @ 0xD
   559                           
   560  000D'                    ___fltol@f1:	
   561                           ; 1 bytes @ 0xD
   562                           
   563                           
   564                           ; 4 bytes @ 0xD
   565  000D'                    	ds	1
   566  000E'                    ___flmul@grs:
   567                           
   568                           ; 4 bytes @ 0xE
   569  000E'                    	ds	3
   570  0011'                    ??___fltol:
   571                           
   572                           ; 1 bytes @ 0x11
   573  0011'                    	ds	1
   574  0012'                    ___flmul@aexp:
   575                           
   576                           ; 1 bytes @ 0x12
   577  0012'                    	ds	1
   578  0013'                    ___flmul@bexp:
   579                           
   580                           ; 1 bytes @ 0x13
   581  0013'                    	ds	1
   582  0014'                    ___flmul@prod:
   583                           
   584                           ; 4 bytes @ 0x14
   585  0014'                    	ds	2
   586  0016'                    ___fltol@sign1:
   587                           
   588                           ; 1 bytes @ 0x16
   589  0016'                    	ds	1
   590  0017'                    ___fltol@exp1:
   591                           
   592                           ; 1 bytes @ 0x17
   593  0017'                    	ds	1
   594  0018'                    ___flmul@temp:
   595                           
   596                           ; 2 bytes @ 0x18
   597  0018'                    	ds	2
   598  001A'                    ??_TMR0_ISR:
   599                           
   600                           ; 1 bytes @ 0x1A
   601  001A'                    	ds	5
   602  001F'                    ??_Servo_Init:
   603  001F'                    ??_UARTSendChar:	
   604                           ; 1 bytes @ 0x1F
   605                           
   606  001F'                    ??_UARTReadChar:	
   607                           ; 1 bytes @ 0x1F
   608                           
   609  001F'                    ??_init:	
   610                           ; 1 bytes @ 0x1F
   611                           
   612  001F'                    ??___wmul:	
   613                           ; 1 bytes @ 0x1F
   614                           
   615                           
   616                           	psect	maintext
   617  0000'                    __pmaintext:	
   618                           ; 1 bytes @ 0x1F
   619 ;;
   620 ;;Main: autosize = 0, tempsize = 3, incstack = 0, save=0
   621 ;;
   622 ;; *************** function _main *****************
   623 ;; Defined at:
   624 ;;		line 92 in file "main.c"
   625 ;; Parameters:    Size  Location     Type
   626 ;;		None
   627 ;; Auto vars:     Size  Location     Type
   628 ;;  readBuf        32    0        PTR unsigned char [16]
   629 ;;  tmpBuf         16    0        PTR unsigned char [8]
   630 ;;  contador        2   29[BANK1 ] int 
   631 ;;  detect_on       2   27[BANK1 ] int 
   632 ;;  nRead           2    0        int 
   633 ;;  letra           1   26[BANK1 ] unsigned char 
   634 ;; Return value:  Size  Location     Type
   635 ;;                  1    wreg      void 
   636 ;; Registers used:
   637 ;;		wreg, fsr0l, fsr0h, status,2, status,0, btemp+1, pclath, cstack
   638 ;; Tracked objects:
   639 ;;		On entry : B00/0
   640 ;;		On exit  : 0/0
   641 ;;		Unchanged: 0/0
   642 ;; Data sizes:     COMMON   BANK0   BANK1   BANK2
   643 ;;      Params:         0       0       0       0
   644 ;;      Locals:         0       0       5       0
   645 ;;      Temps:          0       0       3       0
   646 ;;      Totals:         0       0       8       0
   647 ;;Total ram usage:        8 bytes
   648 ;; Hardware stack levels required when called: 6
   649 ;; This function calls:
   650 ;;		_Servo_8_Write
   651 ;;		_Servo_Init
   652 ;;		_UARTDataReady
   653 ;;		_UARTReadChar
   654 ;;		_UARTSendString
   655 ;;		_init
   656 ;; This function is called by:
   657 ;;		Startup code after reset
   658 ;; This function uses a non-reentrant model
   659 ;;
   660                           
   661  0000'                    _main:	
   662                           ;psect for function _main
   663                           
   664  0000'                    l2458:	
   665                           ;incstack = 0
   666                           ; Regs used in _main: [wreg-fsr0h+status,2+status,0+btemp+1+pclath+cstack]
   667                           
   668  0000'                    l2460:
   669                           
   670                           ;main.c: 96:     char letra;;main.c: 97:     init();
   671  0000' 2000'              	fcall	_init
   672  0001'                    l2462:
   673                           
   674                           ;main.c: 98:     PORTBbits.RB3 = 1;
   675  0001' 1283               	bcf	3,5	;RP0=0, select bank0
   676  0002' 1303               	bcf	3,6	;RP1=0, select bank0
   677  0003' 1586               	bsf	6,3	;volatile
   678  0004'                    l2464:
   679                           
   680                           ;main.c: 99:     PORTBbits.RB4 = 1;
   681  0004' 1606               	bsf	6,4	;volatile
   682  0005'                    l2466:
   683                           
   684                           ;main.c: 100:     PORTBbits.RB5 = 1;
   685  0005' 1686               	bsf	6,5	;volatile
   686  0006'                    l2468:
   687                           
   688                           ;main.c: 101:     PORTBbits.RB6 = 1;
   689  0006' 1706               	bsf	6,6	;volatile
   690  0007'                    l2470:
   691                           
   692                           ;main.c: 102:     _delay((unsigned long)((1000)*(4000000/4000.0)));
   693  0007' 3006               	movlw	6
   694  0008' 1683               	bsf	3,5	;RP0=1, select bank1
   695  0009' 1303               	bcf	3,6	;RP1=0, select bank1
   696  000A' 0082'              	movwf	(??_main^(0+128)+2)
   697  000B' 3013               	movlw	19
   698  000C' 0081'              	movwf	(??_main^(0+128)+1)
   699  000D' 30AD               	movlw	173
   700  000E' 0080'              	movwf	??_main^(0+128)
   701  000F'                    u3207:
   702  000F' 0B80'              	decfsz	??_main^(0+128),f
   703  0010' 280F'              	goto	u3207
   704  0011' 0B81'              	decfsz	(??_main^(0+128)+1),f
   705  0012' 280F'              	goto	u3207
   706  0013' 0B82'              	decfsz	(??_main^(0+128)+2),f
   707  0014' 280F'              	goto	u3207
   708  0015' 0000               	nop
   709  0016'                    l2472:
   710                           
   711                           ;main.c: 103:     PORTBbits.RB3 = 0;
   712  0016' 1283               	bcf	3,5	;RP0=0, select bank0
   713  0017' 1303               	bcf	3,6	;RP1=0, select bank0
   714  0018' 1186               	bcf	6,3	;volatile
   715  0019'                    l2474:
   716                           
   717                           ;main.c: 104:     PORTBbits.RB4 = 0;
   718  0019' 1206               	bcf	6,4	;volatile
   719  001A'                    l2476:
   720                           
   721                           ;main.c: 105:     PORTBbits.RB5 = 0;
   722  001A' 1286               	bcf	6,5	;volatile
   723  001B'                    l2478:
   724                           
   725                           ;main.c: 106:     PORTBbits.RB6 = 0;
   726  001B' 1306               	bcf	6,6	;volatile
   727  001C'                    l2480:
   728                           
   729                           ;main.c: 108:     int detect_on = 0;
   730  001C' 1683               	bsf	3,5	;RP0=1, select bank1
   731  001D' 1303               	bcf	3,6	;RP1=0, select bank1
   732  001E' 0180'              	clrf	main@detect_on^(0+128)
   733  001F' 0180'              	clrf	(main@detect_on+1)^(0+128)
   734  0020'                    l2482:
   735                           
   736                           ;main.c: 109:     Servo_Init();
   737  0020' 2000'              	fcall	_Servo_Init
   738  0021'                    l2484:
   739                           
   740                           ;main.c: 110:     int contador = 0;
   741  0021' 1683               	bsf	3,5	;RP0=1, select bank1
   742  0022' 1303               	bcf	3,6	;RP1=0, select bank1
   743  0023' 0180'              	clrf	main@contador^(0+128)
   744  0024' 0180'              	clrf	(main@contador+1)^(0+128)
   745  0025'                    l2486:
   746                           
   747                           ;main.c: 112:     PORTBbits.RB6 = 1;
   748  0025' 1283               	bcf	3,5	;RP0=0, select bank0
   749  0026' 1303               	bcf	3,6	;RP1=0, select bank0
   750  0027' 1706               	bsf	6,6	;volatile
   751  0028'                    l2488:
   752                           
   753                           ;main.c: 122:         if (PORTAbits.RA3 == 1){
   754  0028' 1283               	bcf	3,5	;RP0=0, select bank0
   755  0029' 1303               	bcf	3,6	;RP1=0, select bank0
   756  002A' 1D85               	btfss	5,3	;volatile
   757  002B' 282D'              	goto	u3111
   758  002C' 282E'              	goto	u3110
   759  002D'                    u3111:
   760  002D' 2846'              	goto	l2494
   761  002E'                    u3110:
   762  002E'                    l2490:
   763                           
   764                           ;main.c: 123:             if (contador < 1000){
   765  002E' 1683               	bsf	3,5	;RP0=1, select bank1
   766  002F' 1303               	bcf	3,6	;RP1=0, select bank1
   767  0030' 0800'              	movf	(main@contador+1)^(0+128),w
   768  0031' 3A80               	xorlw	128
   769  0032' 00FF               	movwf	btemp+1
   770  0033' 3083               	movlw	131
   771  0034' 027F               	subwf	btemp+1,w
   772  0035' 1D03               	skipz
   773  0036' 2839'              	goto	u3125
   774  0037' 30E8               	movlw	232
   775  0038' 0200'              	subwf	main@contador^(0+128),w
   776  0039'                    u3125:
   777  0039' 1803               	skipnc
   778  003A' 283C'              	goto	u3121
   779  003B' 283D'              	goto	u3120
   780  003C'                    u3121:
   781  003C' 285D'              	goto	l2498
   782  003D'                    u3120:
   783  003D'                    l2492:
   784                           
   785                           ;main.c: 124:                 contador++;
   786  003D' 3001               	movlw	1
   787  003E' 1683               	bsf	3,5	;RP0=1, select bank1
   788  003F' 1303               	bcf	3,6	;RP1=0, select bank1
   789  0040' 0780'              	addwf	main@contador^(0+128),f
   790  0041' 1803               	skipnc
   791  0042' 0A80'              	incf	(main@contador+1)^(0+128),f
   792  0043' 3000               	movlw	0
   793  0044' 0780'              	addwf	(main@contador+1)^(0+128),f
   794  0045' 285D'              	goto	l2498
   795  0046'                    l2494:
   796                           
   797                           ;main.c: 127:             if (contador > 0){
   798  0046' 1683               	bsf	3,5	;RP0=1, select bank1
   799  0047' 1303               	bcf	3,6	;RP1=0, select bank1
   800  0048' 0800'              	movf	(main@contador+1)^(0+128),w
   801  0049' 3A80               	xorlw	128
   802  004A' 00FF               	movwf	btemp+1
   803  004B' 3080               	movlw	128
   804  004C' 027F               	subwf	btemp+1,w
   805  004D' 1D03               	skipz
   806  004E' 2851'              	goto	u3135
   807  004F' 3001               	movlw	1
   808  0050' 0200'              	subwf	main@contador^(0+128),w
   809  0051'                    u3135:
   810  0051' 1C03               	skipc
   811  0052' 2854'              	goto	u3131
   812  0053' 2855'              	goto	u3130
   813  0054'                    u3131:
   814  0054' 285D'              	goto	l2498
   815  0055'                    u3130:
   816  0055'                    l2496:
   817                           
   818                           ;main.c: 128:                 contador--;
   819  0055' 30FF               	movlw	255
   820  0056' 1683               	bsf	3,5	;RP0=1, select bank1
   821  0057' 1303               	bcf	3,6	;RP1=0, select bank1
   822  0058' 0780'              	addwf	main@contador^(0+128),f
   823  0059' 1803               	skipnc
   824  005A' 0A80'              	incf	(main@contador+1)^(0+128),f
   825  005B' 30FF               	movlw	255
   826  005C' 0780'              	addwf	(main@contador+1)^(0+128),f
   827  005D'                    l2498:
   828                           
   829                           ;main.c: 131:         if (contador < 1 && detect_on == 0){
   830  005D' 1683               	bsf	3,5	;RP0=1, select bank1
   831  005E' 1303               	bcf	3,6	;RP1=0, select bank1
   832  005F' 0800'              	movf	(main@contador+1)^(0+128),w
   833  0060' 3A80               	xorlw	128
   834  0061' 00FF               	movwf	btemp+1
   835  0062' 3080               	movlw	128
   836  0063' 027F               	subwf	btemp+1,w
   837  0064' 1D03               	skipz
   838  0065' 2868'              	goto	u3145
   839  0066' 3001               	movlw	1
   840  0067' 0200'              	subwf	main@contador^(0+128),w
   841  0068'                    u3145:
   842  0068' 1803               	skipnc
   843  0069' 286B'              	goto	u3141
   844  006A' 286C'              	goto	u3140
   845  006B'                    u3141:
   846  006B' 2878'              	goto	l106
   847  006C'                    u3140:
   848  006C'                    l2500:
   849  006C' 1683               	bsf	3,5	;RP0=1, select bank1
   850  006D' 1303               	bcf	3,6	;RP1=0, select bank1
   851  006E' 0800'              	movf	main@detect_on^(0+128),w
   852  006F' 0400'              	iorwf	(main@detect_on+1)^(0+128),w
   853  0070' 1D03               	btfss	3,2
   854  0071' 2873'              	goto	u3151
   855  0072' 2874'              	goto	u3150
   856  0073'                    u3151:
   857  0073' 2878'              	goto	l106
   858  0074'                    u3150:
   859  0074'                    l2502:
   860                           
   861                           ;main.c: 132:             PORTBbits.RB6 = 1;
   862  0074' 1283               	bcf	3,5	;RP0=0, select bank0
   863  0075' 1303               	bcf	3,6	;RP1=0, select bank0
   864  0076' 1706               	bsf	6,6	;volatile
   865                           
   866                           ;main.c: 133:         }else{
   867  0077' 287B'              	goto	l107
   868  0078'                    l106:
   869                           
   870                           ;main.c: 134:             PORTBbits.RB6 = 0;
   871  0078' 1283               	bcf	3,5	;RP0=0, select bank0
   872  0079' 1303               	bcf	3,6	;RP1=0, select bank0
   873  007A' 1306               	bcf	6,6	;volatile
   874  007B'                    l107:	
   875                           ;main.c: 135:         }
   876                           
   877                           
   878                           ;main.c: 141:         if(PORTAbits.RA0 == 1){
   879  007B' 1C05               	btfss	5,0	;volatile
   880  007C' 287E'              	goto	u3161
   881  007D' 287F'              	goto	u3160
   882  007E'                    u3161:
   883  007E' 2880'              	goto	l108
   884  007F'                    u3160:
   885  007F'                    l2504:
   886                           
   887                           ;main.c: 142:             PORTBbits.RB3 = 0;
   888  007F' 1186               	bcf	6,3	;volatile
   889  0080'                    l108:	
   890                           ;main.c: 143:         }
   891                           
   892                           
   893                           ;main.c: 144:         if(PORTAbits.RA1 == 1){
   894  0080' 1C85               	btfss	5,1	;volatile
   895  0081' 2883'              	goto	u3171
   896  0082' 2884'              	goto	u3170
   897  0083'                    u3171:
   898  0083' 2885'              	goto	l109
   899  0084'                    u3170:
   900  0084'                    l2506:
   901                           
   902                           ;main.c: 145:             PORTBbits.RB4 = 0;
   903  0084' 1206               	bcf	6,4	;volatile
   904  0085'                    l109:	
   905                           ;main.c: 146:         }
   906                           
   907                           
   908                           ;main.c: 147:         if(PORTAbits.RA2 == 1){
   909  0085' 1D05               	btfss	5,2	;volatile
   910  0086' 2888'              	goto	u3181
   911  0087' 2889'              	goto	u3180
   912  0088'                    u3181:
   913  0088' 288A'              	goto	l2510
   914  0089'                    u3180:
   915  0089'                    l2508:
   916                           
   917                           ;main.c: 148:             PORTBbits.RB5 = 0;
   918  0089' 1286               	bcf	6,5	;volatile
   919  008A'                    l2510:
   920                           
   921                           ;main.c: 151:         if(UARTDataReady() > 0){
   922  008A' 2000'              	fcall	_UARTDataReady
   923  008B' 1683               	bsf	3,5	;RP0=1, select bank1
   924  008C' 1303               	bcf	3,6	;RP1=0, select bank1
   925  008D' 0800'              	movf	(?_UARTDataReady+1)^(0+128),w
   926  008E' 3A80               	xorlw	128
   927  008F' 00FF               	movwf	btemp+1
   928  0090' 3080               	movlw	128
   929  0091' 027F               	subwf	btemp+1,w
   930  0092' 1D03               	skipz
   931  0093' 2896'              	goto	u3195
   932  0094' 3001               	movlw	1
   933  0095' 0200'              	subwf	?_UARTDataReady^(0+128),w
   934  0096'                    u3195:
   935  0096' 1C03               	skipc
   936  0097' 2899'              	goto	u3191
   937  0098' 289A'              	goto	u3190
   938  0099'                    u3191:
   939  0099' 2828'              	goto	l2488
   940  009A'                    u3190:
   941  009A'                    l2512:
   942                           
   943                           ;main.c: 166:             letra = UARTReadChar();
   944  009A' 2000'              	fcall	_UARTReadChar
   945  009B' 1683               	bsf	3,5	;RP0=1, select bank1
   946  009C' 1303               	bcf	3,6	;RP1=0, select bank1
   947  009D' 0080'              	movwf	??_main^(0+128)
   948  009E' 0800'              	movf	??_main^(0+128),w
   949  009F' 0080'              	movwf	main@letra^(0+128)
   950                           
   951                           ;main.c: 168:             switch (letra){
   952  00A0' 28E4'              	goto	l2540
   953  00A1'                    l113:	
   954                           ;main.c: 169:                 case 'a':
   955                           
   956                           
   957                           ;main.c: 171:                     PORTBbits.RB3 = 1;
   958  00A1' 1283               	bcf	3,5	;RP0=0, select bank0
   959  00A2' 1303               	bcf	3,6	;RP1=0, select bank0
   960  00A3' 1586               	bsf	6,3	;volatile
   961  00A4'                    l2514:
   962                           
   963                           ;main.c: 172:                     Servo_8_Write(0);
   964  00A4' 3000               	movlw	0
   965  00A5' 2000'              	fcall	_Servo_8_Write
   966  00A6'                    l2516:
   967                           
   968                           ;main.c: 173:                     UARTSendString("y\0", 16);
   969  00A6' 3010               	movlw	16
   970  00A7' 1683               	bsf	3,5	;RP0=1, select bank1
   971  00A8' 1303               	bcf	3,6	;RP1=0, select bank1
   972  00A9' 0080'              	movwf	??_main^(0+128)
   973  00AA' 0800'              	movf	??_main^(0+128),w
   974  00AB' 0080'              	movwf	UARTSendString@max_length^(0+128)
   975  00AC' 3001               	movlw	(low ((STR_1-__stringbase)| (0+32768)))& (0+255)
   976  00AD' 2000'              	fcall	_UARTSendString
   977  00AE'                    l2518:
   978                           
   979                           ;main.c: 174:                     PORTBbits.RB6 = 1;
   980  00AE' 1283               	bcf	3,5	;RP0=0, select bank0
   981  00AF' 1303               	bcf	3,6	;RP1=0, select bank0
   982  00B0' 1706               	bsf	6,6	;volatile
   983  00B1'                    l2520:
   984                           
   985                           ;main.c: 175:                     detect_on = 0;
   986  00B1' 1683               	bsf	3,5	;RP0=1, select bank1
   987  00B2' 1303               	bcf	3,6	;RP1=0, select bank1
   988  00B3' 0180'              	clrf	main@detect_on^(0+128)
   989  00B4' 0180'              	clrf	(main@detect_on+1)^(0+128)
   990                           
   991                           ;main.c: 176:                     break;
   992  00B5' 2828'              	goto	l2488
   993  00B6'                    l115:	
   994                           ;main.c: 177:                 case 'b':
   995                           
   996                           
   997                           ;main.c: 179:                     PORTBbits.RB3 = 0;
   998  00B6' 1283               	bcf	3,5	;RP0=0, select bank0
   999  00B7' 1303               	bcf	3,6	;RP1=0, select bank0
  1000  00B8' 1186               	bcf	6,3	;volatile
  1001                           
  1002                           ;main.c: 180:                     break;
  1003  00B9' 2828'              	goto	l2488
  1004  00BA'                    l116:	
  1005                           ;main.c: 181:                 case 'c':
  1006                           
  1007                           
  1008                           ;main.c: 183:                     PORTBbits.RB4 = 1;
  1009  00BA' 1283               	bcf	3,5	;RP0=0, select bank0
  1010  00BB' 1303               	bcf	3,6	;RP1=0, select bank0
  1011  00BC' 1606               	bsf	6,4	;volatile
  1012  00BD'                    l2522:
  1013                           
  1014                           ;main.c: 184:                     Servo_8_Write(90);
  1015  00BD' 305A               	movlw	90
  1016  00BE' 2000'              	fcall	_Servo_8_Write
  1017  00BF'                    l2524:
  1018                           
  1019                           ;main.c: 185:                     UARTSendString("y\0", 16);
  1020  00BF' 3010               	movlw	16
  1021  00C0' 1683               	bsf	3,5	;RP0=1, select bank1
  1022  00C1' 1303               	bcf	3,6	;RP1=0, select bank1
  1023  00C2' 0080'              	movwf	??_main^(0+128)
  1024  00C3' 0800'              	movf	??_main^(0+128),w
  1025  00C4' 0080'              	movwf	UARTSendString@max_length^(0+128)
  1026  00C5' 3001               	movlw	(low ((STR_1-__stringbase)| (0+32768)))& (0+255)
  1027  00C6' 2000'              	fcall	_UARTSendString
  1028  00C7'                    l2526:
  1029                           
  1030                           ;main.c: 186:                     PORTBbits.RB6 = 1;
  1031  00C7' 1283               	bcf	3,5	;RP0=0, select bank0
  1032  00C8' 1303               	bcf	3,6	;RP1=0, select bank0
  1033  00C9' 1706               	bsf	6,6	;volatile
  1034  00CA' 28B1'              	goto	l2520
  1035  00CB'                    l117:	
  1036                           ;main.c: 189:                 case 'd':
  1037                           
  1038                           
  1039                           ;main.c: 191:                     PORTBbits.RB4 = 0;
  1040  00CB' 1283               	bcf	3,5	;RP0=0, select bank0
  1041  00CC' 1303               	bcf	3,6	;RP1=0, select bank0
  1042  00CD' 1206               	bcf	6,4	;volatile
  1043                           
  1044                           ;main.c: 192:                     break;
  1045  00CE' 2828'              	goto	l2488
  1046  00CF'                    l118:	
  1047                           ;main.c: 193:                 case 'e':
  1048                           
  1049                           
  1050                           ;main.c: 195:                     PORTBbits.RB5 = 1;
  1051  00CF' 1283               	bcf	3,5	;RP0=0, select bank0
  1052  00D0' 1303               	bcf	3,6	;RP1=0, select bank0
  1053  00D1' 1686               	bsf	6,5	;volatile
  1054  00D2'                    l2530:
  1055                           
  1056                           ;main.c: 196:                     Servo_8_Write(180);
  1057  00D2' 30B4               	movlw	180
  1058  00D3' 2000'              	fcall	_Servo_8_Write
  1059  00D4'                    l2532:
  1060                           
  1061                           ;main.c: 197:                     UARTSendString("y\0", 16);
  1062  00D4' 3010               	movlw	16
  1063  00D5' 1683               	bsf	3,5	;RP0=1, select bank1
  1064  00D6' 1303               	bcf	3,6	;RP1=0, select bank1
  1065  00D7' 0080'              	movwf	??_main^(0+128)
  1066  00D8' 0800'              	movf	??_main^(0+128),w
  1067  00D9' 0080'              	movwf	UARTSendString@max_length^(0+128)
  1068  00DA' 3001               	movlw	(low ((STR_1-__stringbase)| (0+32768)))& (0+255)
  1069  00DB' 2000'              	fcall	_UARTSendString
  1070  00DC'                    l2534:
  1071                           
  1072                           ;main.c: 198:                     PORTBbits.RB6 = 1;
  1073  00DC' 1283               	bcf	3,5	;RP0=0, select bank0
  1074  00DD' 1303               	bcf	3,6	;RP1=0, select bank0
  1075  00DE' 1706               	bsf	6,6	;volatile
  1076  00DF' 28B1'              	goto	l2520
  1077  00E0'                    l119:	
  1078                           ;main.c: 201:                 case 'f':
  1079                           
  1080                           
  1081                           ;main.c: 203:                     PORTBbits.RB5 = 0;
  1082  00E0' 1283               	bcf	3,5	;RP0=0, select bank0
  1083  00E1' 1303               	bcf	3,6	;RP1=0, select bank0
  1084  00E2' 1286               	bcf	6,5	;volatile
  1085                           
  1086                           ;main.c: 204:                     break;
  1087  00E3' 2828'              	goto	l2488
  1088  00E4'                    l2540:
  1089  00E4' 0800'              	movf	main@letra^(0+128),w
  1090  00E5' 0080'              	movwf	??_main^(0+128)
  1091  00E6' 0181'              	clrf	(??_main^(0+128)+1)
  1092                           
  1093                           ; Switch on 2 bytes has been partitioned into a top level switch of size 1, and 1 sub-sw
      +                          itches
  1094                           ; Switch size 1, requested type "simple"
  1095                           ; Number of cases is 1, Range of values is 0 to 0
  1096                           ; switch strategies available:
  1097                           ; Name         Instructions Cycles
  1098                           ; simple_byte            4     3 (average)
  1099                           ; direct_byte            7     6 (fixed)
  1100                           ; jumptable            260     6 (fixed)
  1101                           ;	Chosen strategy is simple_byte
  1102  00E7' 0800'              	movf	(??_main+1)^(0+128),w
  1103  00E8' 3A00               	xorlw	0	; case 0
  1104  00E9' 1903               	skipnz
  1105  00EA' 28EC'              	goto	l2578
  1106  00EB' 2828'              	goto	l2488
  1107  00EC'                    l2578:
  1108                           
  1109                           ; Switch size 1, requested type "simple"
  1110                           ; Number of cases is 6, Range of values is 97 to 102
  1111                           ; switch strategies available:
  1112                           ; Name         Instructions Cycles
  1113                           ; direct_byte           15     9 (fixed)
  1114                           ; simple_byte           19    10 (average)
  1115                           ; jumptable            263     9 (fixed)
  1116                           ;	Chosen strategy is simple_byte
  1117  00EC' 0800'              	movf	??_main^(0+128),w
  1118  00ED' 3A61               	xorlw	97	; case 97
  1119  00EE' 1903               	skipnz
  1120  00EF' 28A1'              	goto	l113
  1121  00F0' 3A03               	xorlw	3	; case 98
  1122  00F1' 1903               	skipnz
  1123  00F2' 28B6'              	goto	l115
  1124  00F3' 3A01               	xorlw	1	; case 99
  1125  00F4' 1903               	skipnz
  1126  00F5' 28BA'              	goto	l116
  1127  00F6' 3A07               	xorlw	7	; case 100
  1128  00F7' 1903               	skipnz
  1129  00F8' 28CB'              	goto	l117
  1130  00F9' 3A01               	xorlw	1	; case 101
  1131  00FA' 1903               	skipnz
  1132  00FB' 28CF'              	goto	l118
  1133  00FC' 3A03               	xorlw	3	; case 102
  1134  00FD' 1903               	skipnz
  1135  00FE' 28E0'              	goto	l119
  1136  00FF' 2828'              	goto	l2488
  1137  0100' 2800'              	ljmp	start
  1138  0101'                    __end_of_main:
  1139                           
  1140                           	psect	text1
  1141  0000'                    __ptext1:	
  1142 ;; *************** function _init *****************
  1143 ;; Defined at:
  1144 ;;		line 57 in file "main.c"
  1145 ;; Parameters:    Size  Location     Type
  1146 ;;		None
  1147 ;; Auto vars:     Size  Location     Type
  1148 ;;		None
  1149 ;; Return value:  Size  Location     Type
  1150 ;;                  1    wreg      void 
  1151 ;; Registers used:
  1152 ;;		wreg, status,2, status,0, pclath, cstack
  1153 ;; Tracked objects:
  1154 ;;		On entry : 0/0
  1155 ;;		On exit  : 0/0
  1156 ;;		Unchanged: 0/0
  1157 ;; Data sizes:     COMMON   BANK0   BANK1   BANK2
  1158 ;;      Params:         0       0       0       0
  1159 ;;      Locals:         0       0       0       0
  1160 ;;      Temps:          0       0       0       0
  1161 ;;      Totals:         0       0       0       0
  1162 ;;Total ram usage:        0 bytes
  1163 ;; Hardware stack levels used: 1
  1164 ;; Hardware stack levels required when called: 5
  1165 ;; This function calls:
  1166 ;;		_UARTInit
  1167 ;; This function is called by:
  1168 ;;		_main
  1169 ;; This function uses a non-reentrant model
  1170 ;;
  1171                           
  1172  0000'                    _init:	
  1173                           ;psect for function _init
  1174                           
  1175  0000'                    l2398:	
  1176                           ;incstack = 0
  1177                           ; Regs used in _init: [wreg+status,2+status,0+pclath+cstack]
  1178                           
  1179                           
  1180                           ;main.c: 59:     CCP1CON = 0b00000101;
  1181  0000' 3005               	movlw	5
  1182  0001' 1283               	bcf	3,5	;RP0=0, select bank0
  1183  0002' 1303               	bcf	3,6	;RP1=0, select bank0
  1184  0003' 0097               	movwf	23	;volatile
  1185                           
  1186                           ;main.c: 60:     T1CON = 0b00111000;
  1187  0004' 3038               	movlw	56
  1188  0005' 0090               	movwf	16	;volatile
  1189  0006'                    l2400:
  1190                           
  1191                           ;main.c: 61:     INTCONbits.GIE = 1;
  1192  0006' 178B               	bsf	11,7	;volatile
  1193  0007'                    l2402:
  1194                           
  1195                           ;main.c: 62:     INTCONbits.PEIE = 1;
  1196  0007' 170B               	bsf	11,6	;volatile
  1197  0008'                    l2404:
  1198                           
  1199                           ;main.c: 63:     PIE1bits.CCP1IE = 1;
  1200  0008' 1683               	bsf	3,5	;RP0=1, select bank1
  1201  0009' 1303               	bcf	3,6	;RP1=0, select bank1
  1202  000A' 150C               	bsf	12,2	;volatile
  1203  000B'                    l2406:
  1204                           
  1205                           ;main.c: 64:     PIR1bits.CCP1IF = 0;
  1206  000B' 1283               	bcf	3,5	;RP0=0, select bank0
  1207  000C' 1303               	bcf	3,6	;RP1=0, select bank0
  1208  000D' 110C               	bcf	12,2	;volatile
  1209  000E'                    l2408:
  1210                           
  1211                           ;main.c: 65:     TMR1L = 0x00;
  1212  000E' 018E               	clrf	14	;volatile
  1213  000F'                    l2410:
  1214                           
  1215                           ;main.c: 66:     TMR1H = 0x00;
  1216  000F' 018F               	clrf	15	;volatile
  1217  0010'                    l2412:
  1218                           
  1219                           ;main.c: 67:     T1CONbits.TMR1ON = 1;
  1220  0010' 1410               	bsf	16,0	;volatile
  1221  0011'                    l2414:
  1222                           
  1223                           ;main.c: 71:     CMCONbits.CM0 = 1;
  1224  0011' 141F               	bsf	31,0	;volatile
  1225  0012'                    l2416:
  1226                           
  1227                           ;main.c: 72:     CMCONbits.CM1 = 1;
  1228  0012' 149F               	bsf	31,1	;volatile
  1229  0013'                    l2418:
  1230                           
  1231                           ;main.c: 73:     CMCONbits.CM2 = 1;
  1232  0013' 151F               	bsf	31,2	;volatile
  1233  0014'                    l2420:
  1234                           
  1235                           ;main.c: 78:     TRISAbits.TRISA0 = 1;
  1236  0014' 1683               	bsf	3,5	;RP0=1, select bank1
  1237  0015' 1303               	bcf	3,6	;RP1=0, select bank1
  1238  0016' 1405               	bsf	5,0	;volatile
  1239  0017'                    l2422:
  1240                           
  1241                           ;main.c: 79:     TRISAbits.TRISA1 = 1;
  1242  0017' 1485               	bsf	5,1	;volatile
  1243  0018'                    l2424:
  1244                           
  1245                           ;main.c: 80:     TRISAbits.TRISA2 = 1;
  1246  0018' 1505               	bsf	5,2	;volatile
  1247  0019'                    l2426:
  1248                           
  1249                           ;main.c: 81:     TRISAbits.TRISA3 = 1;
  1250  0019' 1585               	bsf	5,3	;volatile
  1251  001A'                    l2428:
  1252                           
  1253                           ;main.c: 83:     TRISBbits.TRISB3 = 0;
  1254  001A' 1186               	bcf	6,3	;volatile
  1255  001B'                    l2430:
  1256                           
  1257                           ;main.c: 84:     TRISBbits.TRISB4 = 0;
  1258  001B' 1206               	bcf	6,4	;volatile
  1259  001C'                    l2432:
  1260                           
  1261                           ;main.c: 85:     TRISBbits.TRISB5 = 0;
  1262  001C' 1286               	bcf	6,5	;volatile
  1263  001D'                    l2434:
  1264                           
  1265                           ;main.c: 86:     TRISBbits.TRISB6 = 0;
  1266  001D' 1306               	bcf	6,6	;volatile
  1267  001E'                    l2436:
  1268                           
  1269                           ;main.c: 87:     PORTB = 0;
  1270  001E' 1283               	bcf	3,5	;RP0=0, select bank0
  1271  001F' 1303               	bcf	3,6	;RP1=0, select bank0
  1272  0020' 0186               	clrf	6	;volatile
  1273  0021'                    l2438:
  1274                           
  1275                           ;main.c: 89:     UARTInit(9600, 1);
  1276  0021' 3000               	movlw	0
  1277  0022' 1683               	bsf	3,5	;RP0=1, select bank1
  1278  0023' 1303               	bcf	3,6	;RP1=0, select bank1
  1279  0024' 0080'              	movwf	(UARTInit@baud_rate+3)^(0+128)
  1280  0025' 3000               	movlw	0
  1281  0026' 0080'              	movwf	(UARTInit@baud_rate+2)^(0+128)
  1282  0027' 3025               	movlw	37
  1283  0028' 0080'              	movwf	(UARTInit@baud_rate+1)^(0+128)
  1284  0029' 3080               	movlw	128
  1285  002A' 0080'              	movwf	UARTInit@baud_rate^(0+128)
  1286  002B' 0180'              	clrf	UARTInit@BRGH^(0+128)
  1287  002C' 0A80'              	incf	UARTInit@BRGH^(0+128),f
  1288  002D' 2000'              	fcall	_UARTInit
  1289  002E'                    l96:
  1290  002E' 0008               	return
  1291  002F'                    __end_of_init:
  1292                           
  1293                           	psect	text2
  1294  0000'                    __ptext2:	
  1295 ;; *************** function _UARTInit *****************
  1296 ;; Defined at:
  1297 ;;		line 15 in file "UART.c"
  1298 ;; Parameters:    Size  Location     Type
  1299 ;;  baud_rate       4   14[BANK1 ] const unsigned long 
  1300 ;;  BRGH            1   18[BANK1 ] const unsigned char 
  1301 ;; Auto vars:     Size  Location     Type
  1302 ;;		None
  1303 ;; Return value:  Size  Location     Type
  1304 ;;                  1    wreg      void 
  1305 ;; Registers used:
  1306 ;;		wreg, status,2, status,0, pclath, cstack
  1307 ;; Tracked objects:
  1308 ;;		On entry : 0/0
  1309 ;;		On exit  : 0/0
  1310 ;;		Unchanged: 0/0
  1311 ;; Data sizes:     COMMON   BANK0   BANK1   BANK2
  1312 ;;      Params:         0       0       5       0
  1313 ;;      Locals:         0       0       0       0
  1314 ;;      Temps:          0       0       4       0
  1315 ;;      Totals:         0       0       9       0
  1316 ;;Total ram usage:        9 bytes
  1317 ;; Hardware stack levels used: 1
  1318 ;; Hardware stack levels required when called: 4
  1319 ;; This function calls:
  1320 ;;		___lldiv
  1321 ;; This function is called by:
  1322 ;;		_init
  1323 ;; This function uses a non-reentrant model
  1324 ;;
  1325                           
  1326  0000'                    _UARTInit:	
  1327                           ;psect for function _UARTInit
  1328                           
  1329  0000'                    l2282:	
  1330                           ;incstack = 0
  1331                           ; Regs used in _UARTInit: [wreg+status,2+status,0+pclath+cstack]
  1332                           
  1333                           
  1334                           ;UART.c: 17:     if (BRGH == 0) {
  1335  0000' 1683               	bsf	3,5	;RP0=1, select bank1
  1336  0001' 1303               	bcf	3,6	;RP1=0, select bank1
  1337  0002' 0800'              	movf	UARTInit@BRGH^(0+128),w
  1338  0003' 1D03               	btfss	3,2
  1339  0004' 2806'              	goto	u2861
  1340  0005' 2807'              	goto	u2860
  1341  0006'                    u2861:
  1342  0006' 2830'              	goto	l2288
  1343  0007'                    u2860:
  1344  0007'                    l2284:
  1345                           
  1346                           ;UART.c: 18:         SPBRG = 4000000/(64*baud_rate) - 1;
  1347  0007' 0800'              	movf	UARTInit@baud_rate^(0+128),w
  1348  0008' 0080'              	movwf	??_UARTInit^(0+128)
  1349  0009' 0800'              	movf	(UARTInit@baud_rate+1)^(0+128),w
  1350  000A' 0081'              	movwf	(??_UARTInit^(0+128)+1)
  1351  000B' 0800'              	movf	(UARTInit@baud_rate+2)^(0+128),w
  1352  000C' 0082'              	movwf	(??_UARTInit^(0+128)+2)
  1353  000D' 0800'              	movf	(UARTInit@baud_rate+3)^(0+128),w
  1354  000E' 0083'              	movwf	(??_UARTInit^(0+128)+3)
  1355  000F' 3006               	movlw	6
  1356  0010'                    u2875:
  1357  0010' 1003               	clrc
  1358  0011' 0D80'              	rlf	??_UARTInit^(0+128),f
  1359  0012' 0D81'              	rlf	(??_UARTInit^(0+128)+1),f
  1360  0013' 0D82'              	rlf	(??_UARTInit^(0+128)+2),f
  1361  0014' 0D83'              	rlf	(??_UARTInit^(0+128)+3),f
  1362  0015'                    u2870:
  1363  0015' 3EFF               	addlw	-1
  1364  0016' 1D03               	skipz
  1365  0017' 2810'              	goto	u2875
  1366  0018' 0800'              	movf	(??_UARTInit+3)^(0+128),w
  1367  0019' 0080'              	movwf	(___lldiv@divisor+3)^(0+128)
  1368  001A' 0800'              	movf	(??_UARTInit+2)^(0+128),w
  1369  001B' 0080'              	movwf	(___lldiv@divisor+2)^(0+128)
  1370  001C' 0800'              	movf	(??_UARTInit+1)^(0+128),w
  1371  001D' 0080'              	movwf	(___lldiv@divisor+1)^(0+128)
  1372  001E' 0800'              	movf	??_UARTInit^(0+128),w
  1373  001F' 0080'              	movwf	___lldiv@divisor^(0+128)
  1374  0020' 3000               	movlw	0
  1375  0021' 0080'              	movwf	(___lldiv@dividend+3)^(0+128)
  1376  0022' 303D               	movlw	61
  1377  0023' 0080'              	movwf	(___lldiv@dividend+2)^(0+128)
  1378  0024' 3009               	movlw	9
  1379  0025' 0080'              	movwf	(___lldiv@dividend+1)^(0+128)
  1380  0026' 3000               	movlw	0
  1381  0027' 0080'              	movwf	___lldiv@dividend^(0+128)
  1382  0028' 2000'              	fcall	___lldiv
  1383  0029' 1683               	bsf	3,5	;RP0=1, select bank1
  1384  002A' 1303               	bcf	3,6	;RP1=0, select bank1
  1385  002B' 0800'              	movf	?___lldiv^(0+128),w
  1386  002C' 3EFF               	addlw	255
  1387  002D' 0099               	movwf	25	;volatile
  1388  002E'                    l2286:
  1389                           
  1390                           ;UART.c: 19:         TXSTAbits.BRGH = 0;
  1391  002E' 1118               	bcf	24,2	;volatile
  1392                           
  1393                           ;UART.c: 20:     } else {
  1394  002F' 2858'              	goto	l2292
  1395  0030'                    l2288:
  1396                           
  1397                           ;UART.c: 21:         SPBRG = 4000000/(16*baud_rate) - 1;
  1398  0030' 0800'              	movf	UARTInit@baud_rate^(0+128),w
  1399  0031' 0080'              	movwf	??_UARTInit^(0+128)
  1400  0032' 0800'              	movf	(UARTInit@baud_rate+1)^(0+128),w
  1401  0033' 0081'              	movwf	(??_UARTInit^(0+128)+1)
  1402  0034' 0800'              	movf	(UARTInit@baud_rate+2)^(0+128),w
  1403  0035' 0082'              	movwf	(??_UARTInit^(0+128)+2)
  1404  0036' 0800'              	movf	(UARTInit@baud_rate+3)^(0+128),w
  1405  0037' 0083'              	movwf	(??_UARTInit^(0+128)+3)
  1406  0038' 3004               	movlw	4
  1407  0039'                    u2885:
  1408  0039' 1003               	clrc
  1409  003A' 0D80'              	rlf	??_UARTInit^(0+128),f
  1410  003B' 0D81'              	rlf	(??_UARTInit^(0+128)+1),f
  1411  003C' 0D82'              	rlf	(??_UARTInit^(0+128)+2),f
  1412  003D' 0D83'              	rlf	(??_UARTInit^(0+128)+3),f
  1413  003E'                    u2880:
  1414  003E' 3EFF               	addlw	-1
  1415  003F' 1D03               	skipz
  1416  0040' 2839'              	goto	u2885
  1417  0041' 0800'              	movf	(??_UARTInit+3)^(0+128),w
  1418  0042' 0080'              	movwf	(___lldiv@divisor+3)^(0+128)
  1419  0043' 0800'              	movf	(??_UARTInit+2)^(0+128),w
  1420  0044' 0080'              	movwf	(___lldiv@divisor+2)^(0+128)
  1421  0045' 0800'              	movf	(??_UARTInit+1)^(0+128),w
  1422  0046' 0080'              	movwf	(___lldiv@divisor+1)^(0+128)
  1423  0047' 0800'              	movf	??_UARTInit^(0+128),w
  1424  0048' 0080'              	movwf	___lldiv@divisor^(0+128)
  1425  0049' 3000               	movlw	0
  1426  004A' 0080'              	movwf	(___lldiv@dividend+3)^(0+128)
  1427  004B' 303D               	movlw	61
  1428  004C' 0080'              	movwf	(___lldiv@dividend+2)^(0+128)
  1429  004D' 3009               	movlw	9
  1430  004E' 0080'              	movwf	(___lldiv@dividend+1)^(0+128)
  1431  004F' 3000               	movlw	0
  1432  0050' 0080'              	movwf	___lldiv@dividend^(0+128)
  1433  0051' 2000'              	fcall	___lldiv
  1434  0052' 1683               	bsf	3,5	;RP0=1, select bank1
  1435  0053' 1303               	bcf	3,6	;RP1=0, select bank1
  1436  0054' 0800'              	movf	?___lldiv^(0+128),w
  1437  0055' 3EFF               	addlw	255
  1438  0056' 0099               	movwf	25	;volatile
  1439  0057'                    l2290:
  1440                           
  1441                           ;UART.c: 22:         TXSTAbits.BRGH = 1;
  1442  0057' 1518               	bsf	24,2	;volatile
  1443  0058'                    l2292:
  1444                           
  1445                           ;UART.c: 26:     TXSTAbits.TX9 = 0;
  1446  0058' 1318               	bcf	24,6	;volatile
  1447  0059'                    l2294:
  1448                           
  1449                           ;UART.c: 27:     TXSTAbits.TXEN = 1;
  1450  0059' 1698               	bsf	24,5	;volatile
  1451  005A'                    l2296:
  1452                           
  1453                           ;UART.c: 28:     TXSTAbits.SYNC = 0;
  1454  005A' 1218               	bcf	24,4	;volatile
  1455  005B'                    l2298:
  1456                           
  1457                           ;UART.c: 29:     TXSTAbits.TRMT = 1;
  1458  005B' 1498               	bsf	24,1	;volatile
  1459  005C'                    l2300:
  1460                           
  1461                           ;UART.c: 32:     RCSTAbits.SPEN = 1;
  1462  005C' 1283               	bcf	3,5	;RP0=0, select bank0
  1463  005D' 1303               	bcf	3,6	;RP1=0, select bank0
  1464  005E' 1798               	bsf	24,7	;volatile
  1465  005F'                    l2302:
  1466                           
  1467                           ;UART.c: 33:     RCSTAbits.RX9 = 0;
  1468  005F' 1318               	bcf	24,6	;volatile
  1469  0060'                    l2304:
  1470                           
  1471                           ;UART.c: 34:     RCSTAbits.CREN = 1;
  1472  0060' 1618               	bsf	24,4	;volatile
  1473  0061'                    l2306:
  1474                           
  1475                           ;UART.c: 35:     RCSTAbits.FERR = 0;
  1476  0061' 1118               	bcf	24,2	;volatile
  1477  0062'                    l2308:
  1478                           
  1479                           ;UART.c: 36:     RCSTAbits.OERR = 0;
  1480  0062' 1098               	bcf	24,1	;volatile
  1481  0063'                    l2310:
  1482                           
  1483                           ;UART.c: 42:     TRISBbits.TRISB1 = 1;
  1484  0063' 1683               	bsf	3,5	;RP0=1, select bank1
  1485  0064' 1303               	bcf	3,6	;RP1=0, select bank1
  1486  0065' 1486               	bsf	6,1	;volatile
  1487  0066'                    l2312:
  1488                           
  1489                           ;UART.c: 43:     TRISBbits.TRISB2 = 1;
  1490  0066' 1506               	bsf	6,2	;volatile
  1491  0067'                    l19:
  1492  0067' 0008               	return
  1493  0068'                    __end_of_UARTInit:
  1494                           
  1495                           	psect	text3
  1496  0000'                    __ptext3:	
  1497 ;; *************** function ___lldiv *****************
  1498 ;; Defined at:
  1499 ;;		line 5 in file "C:\Program Files\Microchip\xc8\v2.36\pic\sources\c90\common\__lldiv.c"
  1500 ;; Parameters:    Size  Location     Type
  1501 ;;  divisor         4    0[BANK1 ] unsigned long 
  1502 ;;  dividend        4    4[BANK1 ] unsigned long 
  1503 ;; Auto vars:     Size  Location     Type
  1504 ;;  quotient        4    9[BANK1 ] unsigned long 
  1505 ;;  counter         1   13[BANK1 ] unsigned char 
  1506 ;; Return value:  Size  Location     Type
  1507 ;;                  4    0[BANK1 ] unsigned long 
  1508 ;; Registers used:
  1509 ;;		wreg, status,2, status,0
  1510 ;; Tracked objects:
  1511 ;;		On entry : 0/0
  1512 ;;		On exit  : 0/0
  1513 ;;		Unchanged: 0/0
  1514 ;; Data sizes:     COMMON   BANK0   BANK1   BANK2
  1515 ;;      Params:         0       0       8       0
  1516 ;;      Locals:         0       0       5       0
  1517 ;;      Temps:          0       0       1       0
  1518 ;;      Totals:         0       0      14       0
  1519 ;;Total ram usage:       14 bytes
  1520 ;; Hardware stack levels used: 1
  1521 ;; Hardware stack levels required when called: 3
  1522 ;; This function calls:
  1523 ;;		Nothing
  1524 ;; This function is called by:
  1525 ;;		_UARTInit
  1526 ;; This function uses a non-reentrant model
  1527 ;;
  1528                           
  1529  0000'                    ___lldiv:	
  1530                           ;psect for function ___lldiv
  1531                           
  1532  0000'                    l2258:	
  1533                           ;incstack = 0
  1534                           ; Regs used in ___lldiv: [wreg+status,2+status,0]
  1535                           
  1536  0000' 3000               	movlw	0
  1537  0001' 1683               	bsf	3,5	;RP0=1, select bank1
  1538  0002' 1303               	bcf	3,6	;RP1=0, select bank1
  1539  0003' 0080'              	movwf	(___lldiv@quotient+3)^(0+128)
  1540  0004' 3000               	movlw	0
  1541  0005' 0080'              	movwf	(___lldiv@quotient+2)^(0+128)
  1542  0006' 3000               	movlw	0
  1543  0007' 0080'              	movwf	(___lldiv@quotient+1)^(0+128)
  1544  0008' 3000               	movlw	0
  1545  0009' 0080'              	movwf	___lldiv@quotient^(0+128)
  1546  000A' 0800'              	movf	(___lldiv@divisor+3)^(0+128),w
  1547  000B' 0400'              	iorwf	(___lldiv@divisor+2)^(0+128),w
  1548  000C' 0400'              	iorwf	(___lldiv@divisor+1)^(0+128),w
  1549  000D' 0400'              	iorwf	___lldiv@divisor^(0+128),w
  1550  000E' 1903               	skipnz
  1551  000F' 2811'              	goto	u2791
  1552  0010' 2812'              	goto	u2790
  1553  0011'                    u2791:
  1554  0011' 285F'              	goto	l2278
  1555  0012'                    u2790:
  1556  0012'                    l2260:
  1557  0012' 0180'              	clrf	___lldiv@counter^(0+128)
  1558  0013' 0A80'              	incf	___lldiv@counter^(0+128),f
  1559  0014' 2822'              	goto	l2264
  1560  0015'                    l2262:
  1561  0015' 3001               	movlw	1
  1562  0016' 0080'              	movwf	??___lldiv^(0+128)
  1563  0017'                    u2805:
  1564  0017' 1003               	clrc
  1565  0018' 0D80'              	rlf	___lldiv@divisor^(0+128),f
  1566  0019' 0D80'              	rlf	(___lldiv@divisor+1)^(0+128),f
  1567  001A' 0D80'              	rlf	(___lldiv@divisor+2)^(0+128),f
  1568  001B' 0D80'              	rlf	(___lldiv@divisor+3)^(0+128),f
  1569  001C' 0B80'              	decfsz	??___lldiv^(0+128),f
  1570  001D' 2817'              	goto	u2805
  1571  001E' 3001               	movlw	1
  1572  001F' 0080'              	movwf	??___lldiv^(0+128)
  1573  0020' 0800'              	movf	??___lldiv^(0+128),w
  1574  0021' 0780'              	addwf	___lldiv@counter^(0+128),f
  1575  0022'                    l2264:
  1576  0022' 1F80'              	btfss	(___lldiv@divisor+3)^(0+128),7
  1577  0023' 2825'              	goto	u2811
  1578  0024' 2826'              	goto	u2810
  1579  0025'                    u2811:
  1580  0025' 2815'              	goto	l2262
  1581  0026'                    u2810:
  1582  0026'                    l2266:
  1583  0026' 3001               	movlw	1
  1584  0027' 0080'              	movwf	??___lldiv^(0+128)
  1585  0028'                    u2825:
  1586  0028' 1003               	clrc
  1587  0029' 0D80'              	rlf	___lldiv@quotient^(0+128),f
  1588  002A' 0D80'              	rlf	(___lldiv@quotient+1)^(0+128),f
  1589  002B' 0D80'              	rlf	(___lldiv@quotient+2)^(0+128),f
  1590  002C' 0D80'              	rlf	(___lldiv@quotient+3)^(0+128),f
  1591  002D' 0B80'              	decfsz	??___lldiv^(0+128),f
  1592  002E' 2828'              	goto	u2825
  1593  002F'                    l2268:
  1594  002F' 0800'              	movf	(___lldiv@divisor+3)^(0+128),w
  1595  0030' 0200'              	subwf	(___lldiv@dividend+3)^(0+128),w
  1596  0031' 1D03               	skipz
  1597  0032' 283D'              	goto	u2835
  1598  0033' 0800'              	movf	(___lldiv@divisor+2)^(0+128),w
  1599  0034' 0200'              	subwf	(___lldiv@dividend+2)^(0+128),w
  1600  0035' 1D03               	skipz
  1601  0036' 283D'              	goto	u2835
  1602  0037' 0800'              	movf	(___lldiv@divisor+1)^(0+128),w
  1603  0038' 0200'              	subwf	(___lldiv@dividend+1)^(0+128),w
  1604  0039' 1D03               	skipz
  1605  003A' 283D'              	goto	u2835
  1606  003B' 0800'              	movf	___lldiv@divisor^(0+128),w
  1607  003C' 0200'              	subwf	___lldiv@dividend^(0+128),w
  1608  003D'                    u2835:
  1609  003D' 1C03               	skipc
  1610  003E' 2840'              	goto	u2831
  1611  003F' 2841'              	goto	u2830
  1612  0040'                    u2831:
  1613  0040' 2850'              	goto	l2274
  1614  0041'                    u2830:
  1615  0041'                    l2270:
  1616  0041' 0800'              	movf	___lldiv@divisor^(0+128),w
  1617  0042' 0280'              	subwf	___lldiv@dividend^(0+128),f
  1618  0043' 0800'              	movf	(___lldiv@divisor+1)^(0+128),w
  1619  0044' 1C03               	skipc
  1620  0045' 0F00'              	incfsz	(___lldiv@divisor+1)^(0+128),w
  1621  0046' 0280'              	subwf	(___lldiv@dividend+1)^(0+128),f
  1622  0047' 0800'              	movf	(___lldiv@divisor+2)^(0+128),w
  1623  0048' 1C03               	skipc
  1624  0049' 0F00'              	incfsz	(___lldiv@divisor+2)^(0+128),w
  1625  004A' 0280'              	subwf	(___lldiv@dividend+2)^(0+128),f
  1626  004B' 0800'              	movf	(___lldiv@divisor+3)^(0+128),w
  1627  004C' 1C03               	skipc
  1628  004D' 0F00'              	incfsz	(___lldiv@divisor+3)^(0+128),w
  1629  004E' 0280'              	subwf	(___lldiv@dividend+3)^(0+128),f
  1630  004F'                    l2272:
  1631  004F' 1400'              	bsf	___lldiv@quotient^(0+128),0
  1632  0050'                    l2274:
  1633  0050' 3001               	movlw	1
  1634  0051'                    u2845:
  1635  0051' 1003               	clrc
  1636  0052' 0C80'              	rrf	(___lldiv@divisor+3)^(0+128),f
  1637  0053' 0C80'              	rrf	(___lldiv@divisor+2)^(0+128),f
  1638  0054' 0C80'              	rrf	(___lldiv@divisor+1)^(0+128),f
  1639  0055' 0C80'              	rrf	___lldiv@divisor^(0+128),f
  1640  0056' 3EFF               	addlw	-1
  1641  0057' 1D03               	skipz
  1642  0058' 2851'              	goto	u2845
  1643  0059'                    l2276:
  1644  0059' 3001               	movlw	1
  1645  005A' 0280'              	subwf	___lldiv@counter^(0+128),f
  1646  005B' 1D03               	btfss	3,2
  1647  005C' 285E'              	goto	u2851
  1648  005D' 285F'              	goto	u2850
  1649  005E'                    u2851:
  1650  005E' 2826'              	goto	l2266
  1651  005F'                    u2850:
  1652  005F'                    l2278:
  1653  005F' 0800'              	movf	(___lldiv@quotient+3)^(0+128),w
  1654  0060' 0080'              	movwf	(?___lldiv+3)^(0+128)
  1655  0061' 0800'              	movf	(___lldiv@quotient+2)^(0+128),w
  1656  0062' 0080'              	movwf	(?___lldiv+2)^(0+128)
  1657  0063' 0800'              	movf	(___lldiv@quotient+1)^(0+128),w
  1658  0064' 0080'              	movwf	(?___lldiv+1)^(0+128)
  1659  0065' 0800'              	movf	___lldiv@quotient^(0+128),w
  1660  0066' 0080'              	movwf	?___lldiv^(0+128)
  1661  0067'                    l292:
  1662  0067' 0008               	return
  1663  0068'                    __end_of___lldiv:
  1664                           
  1665                           	psect	text4
  1666  0000'                    __ptext4:	
  1667 ;; *************** function _UARTSendString *****************
  1668 ;; Defined at:
  1669 ;;		line 60 in file "UART.c"
  1670 ;; Parameters:    Size  Location     Type
  1671 ;;  str             1    wreg     PTR const unsigned char 
  1672 ;;		 -> STR_3(3), STR_2(3), STR_1(3), 
  1673 ;;  max_length      1    1[BANK1 ] const unsigned char 
  1674 ;; Auto vars:     Size  Location     Type
  1675 ;;  str             1    3[BANK1 ] PTR const unsigned char 
  1676 ;;		 -> STR_3(3), STR_2(3), STR_1(3), 
  1677 ;;  i               2    4[BANK1 ] int 
  1678 ;; Return value:  Size  Location     Type
  1679 ;;                  1    wreg      void 
  1680 ;; Registers used:
  1681 ;;		wreg, fsr0l, fsr0h, status,2, status,0, pclath, cstack
  1682 ;; Tracked objects:
  1683 ;;		On entry : 0/0
  1684 ;;		On exit  : 0/0
  1685 ;;		Unchanged: 0/0
  1686 ;; Data sizes:     COMMON   BANK0   BANK1   BANK2
  1687 ;;      Params:         0       0       1       0
  1688 ;;      Locals:         0       0       3       0
  1689 ;;      Temps:          0       0       1       0
  1690 ;;      Totals:         0       0       5       0
  1691 ;;Total ram usage:        5 bytes
  1692 ;; Hardware stack levels used: 1
  1693 ;; Hardware stack levels required when called: 4
  1694 ;; This function calls:
  1695 ;;		_UARTSendChar
  1696 ;; This function is called by:
  1697 ;;		_main
  1698 ;; This function uses a non-reentrant model
  1699 ;;
  1700                           
  1701  0000'                    _UARTSendString:	
  1702                           ;psect for function _UARTSendString
  1703                           
  1704                           
  1705                           ;incstack = 0
  1706                           ; Regs used in _UARTSendString: [wreg-fsr0h+status,2+status,0+pclath+cstack]
  1707                           ;UARTSendString@str stored from wreg
  1708  0000' 1683               	bsf	3,5	;RP0=1, select bank1
  1709  0001' 1303               	bcf	3,6	;RP1=0, select bank1
  1710  0002' 0080'              	movwf	UARTSendString@str^(0+128)
  1711  0003'                    l2380:
  1712                           
  1713                           ;UART.c: 61:     int i = 0;
  1714  0003' 0180'              	clrf	UARTSendString@i^(0+128)
  1715  0004' 0180'              	clrf	(UARTSendString@i+1)^(0+128)
  1716                           
  1717                           ;UART.c: 62:     for (i=0 ; i<max_length && str[i]!='\0' ; i++) {
  1718  0005' 0180'              	clrf	UARTSendString@i^(0+128)
  1719  0006' 0180'              	clrf	(UARTSendString@i+1)^(0+128)
  1720  0007' 2815'              	goto	l2386
  1721  0008'                    l2382:
  1722                           
  1723                           ;UART.c: 63:         UARTSendChar(str[i]);
  1724  0008' 0800'              	movf	UARTSendString@i^(0+128),w
  1725  0009' 0700'              	addwf	UARTSendString@str^(0+128),w
  1726  000A' 0084               	movwf	4
  1727  000B' 2000'              	fcall	stringdir
  1728  000C' 2000'              	fcall	_UARTSendChar
  1729  000D'                    l2384:
  1730                           
  1731                           ;UART.c: 64:     }
  1732  000D' 3001               	movlw	1
  1733  000E' 1683               	bsf	3,5	;RP0=1, select bank1
  1734  000F' 1303               	bcf	3,6	;RP1=0, select bank1
  1735  0010' 0780'              	addwf	UARTSendString@i^(0+128),f
  1736  0011' 1803               	skipnc
  1737  0012' 0A80'              	incf	(UARTSendString@i+1)^(0+128),f
  1738  0013' 3000               	movlw	0
  1739  0014' 0780'              	addwf	(UARTSendString@i+1)^(0+128),f
  1740  0015'                    l2386:
  1741  0015' 0800'              	movf	(UARTSendString@i+1)^(0+128),w
  1742  0016' 3A80               	xorlw	128
  1743  0017' 0080'              	movwf	??_UARTSendString^(0+128)
  1744  0018' 3080               	movlw	128
  1745  0019' 0200'              	subwf	??_UARTSendString^(0+128),w
  1746  001A' 1D03               	skipz
  1747  001B' 281E'              	goto	u3045
  1748  001C' 0800'              	movf	UARTSendString@max_length^(0+128),w
  1749  001D' 0200'              	subwf	UARTSendString@i^(0+128),w
  1750  001E'                    u3045:
  1751  001E' 1803               	skipnc
  1752  001F' 2821'              	goto	u3041
  1753  0020' 2822'              	goto	u3040
  1754  0021'                    u3041:
  1755  0021' 282D'              	goto	l33
  1756  0022'                    u3040:
  1757  0022'                    l2388:
  1758  0022' 1683               	bsf	3,5	;RP0=1, select bank1
  1759  0023' 1303               	bcf	3,6	;RP1=0, select bank1
  1760  0024' 0800'              	movf	UARTSendString@i^(0+128),w
  1761  0025' 0700'              	addwf	UARTSendString@str^(0+128),w
  1762  0026' 0084               	movwf	4
  1763  0027' 2000'              	fcall	stringdir
  1764  0028' 3A00               	xorlw	0
  1765  0029' 1D03               	skipz
  1766  002A' 282C'              	goto	u3051
  1767  002B' 282D'              	goto	u3050
  1768  002C'                    u3051:
  1769  002C' 2808'              	goto	l2382
  1770  002D'                    u3050:
  1771  002D'                    l33:
  1772  002D' 0008               	return
  1773  002E'                    __end_of_UARTSendString:
  1774                           
  1775                           	psect	text5
  1776  0000'                    __ptext5:	
  1777 ;; *************** function _UARTSendChar *****************
  1778 ;; Defined at:
  1779 ;;		line 50 in file "UART.c"
  1780 ;; Parameters:    Size  Location     Type
  1781 ;;  c               1    wreg     const unsigned char 
  1782 ;; Auto vars:     Size  Location     Type
  1783 ;;  c               1    0[BANK1 ] const unsigned char 
  1784 ;; Return value:  Size  Location     Type
  1785 ;;                  1    wreg      void 
  1786 ;; Registers used:
  1787 ;;		wreg
  1788 ;; Tracked objects:
  1789 ;;		On entry : 0/0
  1790 ;;		On exit  : 0/0
  1791 ;;		Unchanged: 0/0
  1792 ;; Data sizes:     COMMON   BANK0   BANK1   BANK2
  1793 ;;      Params:         0       0       0       0
  1794 ;;      Locals:         0       0       1       0
  1795 ;;      Temps:          0       0       0       0
  1796 ;;      Totals:         0       0       1       0
  1797 ;;Total ram usage:        1 bytes
  1798 ;; Hardware stack levels used: 1
  1799 ;; Hardware stack levels required when called: 3
  1800 ;; This function calls:
  1801 ;;		Nothing
  1802 ;; This function is called by:
  1803 ;;		_UARTSendString
  1804 ;; This function uses a non-reentrant model
  1805 ;;
  1806                           
  1807  0000'                    _UARTSendChar:	
  1808                           ;psect for function _UARTSendChar
  1809                           
  1810                           
  1811                           ;incstack = 0
  1812                           ; Regs used in _UARTSendChar: [wreg]
  1813                           ;UARTSendChar@c stored from wreg
  1814  0000' 1683               	bsf	3,5	;RP0=1, select bank1
  1815  0001' 1303               	bcf	3,6	;RP1=0, select bank1
  1816  0002' 0080'              	movwf	UARTSendChar@c^(0+128)
  1817  0003'                    l2314:
  1818  0003'                    l22:	
  1819                           ;UART.c: 51:     while (TXSTAbits.TRMT == 0);
  1820                           
  1821  0003' 1C98               	btfss	24,1	;volatile
  1822  0004' 2806'              	goto	u2891
  1823  0005' 2807'              	goto	u2890
  1824  0006'                    u2891:
  1825  0006' 2803'              	goto	l22
  1826  0007'                    u2890:
  1827  0007'                    l2316:
  1828                           
  1829                           ;UART.c: 52:     TXREG = c;
  1830  0007' 0800'              	movf	UARTSendChar@c^(0+128),w
  1831  0008' 1283               	bcf	3,5	;RP0=0, select bank0
  1832  0009' 1303               	bcf	3,6	;RP1=0, select bank0
  1833  000A' 0099               	movwf	25	;volatile
  1834  000B'                    l25:
  1835  000B' 0008               	return
  1836  000C'                    __end_of_UARTSendChar:
  1837                           
  1838                           	psect	text6
  1839  0000'                    __ptext6:	
  1840 ;; *************** function _UARTReadChar *****************
  1841 ;; Defined at:
  1842 ;;		line 79 in file "UART.c"
  1843 ;; Parameters:    Size  Location     Type
  1844 ;;		None
  1845 ;; Auto vars:     Size  Location     Type
  1846 ;;		None
  1847 ;; Return value:  Size  Location     Type
  1848 ;;                  1    wreg      unsigned char 
  1849 ;; Registers used:
  1850 ;;		wreg, status,2, status,0, pclath, cstack
  1851 ;; Tracked objects:
  1852 ;;		On entry : 0/0
  1853 ;;		On exit  : 0/0
  1854 ;;		Unchanged: 0/0
  1855 ;; Data sizes:     COMMON   BANK0   BANK1   BANK2
  1856 ;;      Params:         0       0       0       0
  1857 ;;      Locals:         0       0       0       0
  1858 ;;      Temps:          0       0       0       0
  1859 ;;      Totals:         0       0       0       0
  1860 ;;Total ram usage:        0 bytes
  1861 ;; Hardware stack levels used: 1
  1862 ;; Hardware stack levels required when called: 4
  1863 ;; This function calls:
  1864 ;;		_UARTDataReady
  1865 ;; This function is called by:
  1866 ;;		_main
  1867 ;;		_UARTReadString
  1868 ;; This function uses a non-reentrant model
  1869 ;;
  1870                           
  1871  0000'                    _UARTReadChar:	
  1872                           ;psect for function _UARTReadChar
  1873                           
  1874  0000'                    l2390:	
  1875                           ;incstack = 0
  1876                           ; Regs used in _UARTReadChar: [wreg+status,2+status,0+pclath+cstack]
  1877                           
  1878  0000'                    l2392:	
  1879                           ;UART.c: 80:     while (!UARTDataReady());
  1880                           
  1881  0000' 2000'              	fcall	_UARTDataReady
  1882  0001' 1683               	bsf	3,5	;RP0=1, select bank1
  1883  0002' 1303               	bcf	3,6	;RP1=0, select bank1
  1884  0003' 0800'              	movf	?_UARTDataReady^(0+128),w
  1885  0004' 0400'              	iorwf	(?_UARTDataReady+1)^(0+128),w
  1886  0005' 1903               	btfsc	3,2
  1887  0006' 2808'              	goto	u3061
  1888  0007' 2809'              	goto	u3060
  1889  0008'                    u3061:
  1890  0008' 2800'              	goto	l2392
  1891  0009'                    u3060:
  1892  0009'                    l2394:
  1893                           
  1894                           ;UART.c: 81:     return RCREG;
  1895  0009' 1283               	bcf	3,5	;RP0=0, select bank0
  1896  000A' 1303               	bcf	3,6	;RP1=0, select bank0
  1897  000B' 081A               	movf	26,w	;volatile
  1898  000C'                    l42:
  1899  000C' 0008               	return
  1900  000D'                    __end_of_UARTReadChar:
  1901                           
  1902                           	psect	text7
  1903  0000'                    __ptext7:	
  1904 ;; *************** function _UARTDataReady *****************
  1905 ;; Defined at:
  1906 ;;		line 71 in file "UART.c"
  1907 ;; Parameters:    Size  Location     Type
  1908 ;;		None
  1909 ;; Auto vars:     Size  Location     Type
  1910 ;;		None
  1911 ;; Return value:  Size  Location     Type
  1912 ;;                  2    0[BANK1 ] short 
  1913 ;; Registers used:
  1914 ;;		wreg, status,2, status,0
  1915 ;; Tracked objects:
  1916 ;;		On entry : 0/0
  1917 ;;		On exit  : 0/0
  1918 ;;		Unchanged: 0/0
  1919 ;; Data sizes:     COMMON   BANK0   BANK1   BANK2
  1920 ;;      Params:         0       0       2       0
  1921 ;;      Locals:         0       0       0       0
  1922 ;;      Temps:          0       0       3       0
  1923 ;;      Totals:         0       0       5       0
  1924 ;;Total ram usage:        5 bytes
  1925 ;; Hardware stack levels used: 1
  1926 ;; Hardware stack levels required when called: 3
  1927 ;; This function calls:
  1928 ;;		Nothing
  1929 ;; This function is called by:
  1930 ;;		_UARTReadChar
  1931 ;;		_main
  1932 ;; This function uses a non-reentrant model
  1933 ;;
  1934                           
  1935  0000'                    _UARTDataReady:	
  1936                           ;psect for function _UARTDataReady
  1937                           
  1938  0000'                    l2318:	
  1939                           ;incstack = 0
  1940                           ; Regs used in _UARTDataReady: [wreg+status,2+status,0]
  1941                           
  1942                           
  1943                           ;UART.c: 72:     return PIR1bits.RCIF ? 1 : 0;
  1944  0000' 1283               	bcf	3,5	;RP0=0, select bank0
  1945  0001' 1303               	bcf	3,6	;RP1=0, select bank0
  1946  0002' 0E0C               	swapf	12,w	;volatile
  1947  0003' 1683               	bsf	3,5	;RP0=1, select bank1
  1948  0004' 1303               	bcf	3,6	;RP1=0, select bank1
  1949  0005' 0080'              	movwf	??_UARTDataReady^(0+128)
  1950  0006' 0C00'              	rrf	??_UARTDataReady^(0+128),w
  1951  0007' 3901               	andlw	1
  1952  0008' 0080'              	movwf	(??_UARTDataReady+1)^(0+128)
  1953  0009' 0181'              	clrf	((??_UARTDataReady+1)^(0+128)+1)
  1954  000A' 0800'              	movf	(??_UARTDataReady+1)^(0+128),w
  1955  000B' 0080'              	movwf	?_UARTDataReady^(0+128)
  1956  000C' 0800'              	movf	(??_UARTDataReady+2)^(0+128),w
  1957  000D' 0080'              	movwf	(?_UARTDataReady+1)^(0+128)
  1958  000E'                    l36:
  1959  000E' 0008               	return
  1960  000F'                    __end_of_UARTDataReady:
  1961                           
  1962                           	psect	text8
  1963  0000'                    __ptext8:	
  1964 ;; *************** function _Servo_Init *****************
  1965 ;; Defined at:
  1966 ;;		line 16 in file "servo.c"
  1967 ;; Parameters:    Size  Location     Type
  1968 ;;		None
  1969 ;; Auto vars:     Size  Location     Type
  1970 ;;		None
  1971 ;; Return value:  Size  Location     Type
  1972 ;;                  1    wreg      void 
  1973 ;; Registers used:
  1974 ;;		wreg, status,2, status,0
  1975 ;; Tracked objects:
  1976 ;;		On entry : 0/0
  1977 ;;		On exit  : 0/0
  1978 ;;		Unchanged: 0/0
  1979 ;; Data sizes:     COMMON   BANK0   BANK1   BANK2
  1980 ;;      Params:         0       0       0       0
  1981 ;;      Locals:         0       0       0       0
  1982 ;;      Temps:          0       0       0       0
  1983 ;;      Totals:         0       0       0       0
  1984 ;;Total ram usage:        0 bytes
  1985 ;; Hardware stack levels used: 1
  1986 ;; Hardware stack levels required when called: 3
  1987 ;; This function calls:
  1988 ;;		Nothing
  1989 ;; This function is called by:
  1990 ;;		_main
  1991 ;; This function uses a non-reentrant model
  1992 ;;
  1993                           
  1994  0000'                    _Servo_Init:	
  1995                           ;psect for function _Servo_Init
  1996                           
  1997  0000'                    l1706:	
  1998                           ;incstack = 0
  1999                           ; Regs used in _Servo_Init: [wreg+status,2+status,0]
  2000                           
  2001                           
  2002                           ;servo.c: 54:     TRISBbits.TRISB7 = 0;
  2003  0000' 1683               	bsf	3,5	;RP0=1, select bank1
  2004  0001' 1303               	bcf	3,6	;RP1=0, select bank1
  2005  0002' 1386               	bcf	6,7	;volatile
  2006                           
  2007                           ;servo.c: 55:     PORTBbits.RB7 = 0;
  2008  0003' 1283               	bcf	3,5	;RP0=0, select bank0
  2009  0004' 1303               	bcf	3,6	;RP1=0, select bank0
  2010  0005' 1386               	bcf	6,7	;volatile
  2011  0006'                    l1708:
  2012                           
  2013                           ;servo.c: 58:     INTCON = 0;
  2014  0006' 018B               	clrf	11	;volatile
  2015  0007'                    l1710:
  2016                           
  2017                           ;servo.c: 59:     INTCONbits.GIE = 1;
  2018  0007' 178B               	bsf	11,7	;volatile
  2019  0008'                    l1712:
  2020                           
  2021                           ;servo.c: 60:     INTCONbits.T0IE = 1;
  2022  0008' 168B               	bsf	11,5	;volatile
  2023  0009'                    l1714:
  2024                           
  2025                           ;servo.c: 61:     INTCONbits.T0IF = 0;
  2026  0009' 110B               	bcf	11,2	;volatile
  2027  000A'                    l1716:
  2028                           
  2029                           ;servo.c: 65:     OPTION_REGbits.T0CS=0;
  2030  000A' 1683               	bsf	3,5	;RP0=1, select bank1
  2031  000B' 1303               	bcf	3,6	;RP1=0, select bank1
  2032  000C' 1281               	bcf	1,5	;volatile
  2033  000D'                    l1718:
  2034                           
  2035                           ;servo.c: 66:     OPTION_REGbits.T0SE = 0;
  2036  000D' 1201               	bcf	1,4	;volatile
  2037  000E'                    l1720:
  2038                           
  2039                           ;servo.c: 67:     OPTION_REGbits.PSA=0;
  2040  000E' 1181               	bcf	1,3	;volatile
  2041  000F'                    l1722:
  2042                           
  2043                           ;servo.c: 68:     OPTION_REGbits.PS=0b000;
  2044  000F' 30F8               	movlw	-8
  2045  0010' 0581               	andwf	1,f	;volatile
  2046  0011'                    l1724:
  2047                           
  2048                           ;servo.c: 70:     TMR0=5;
  2049  0011' 3005               	movlw	5
  2050  0012' 1283               	bcf	3,5	;RP0=0, select bank0
  2051  0013' 1303               	bcf	3,6	;RP1=0, select bank0
  2052  0014' 0081               	movwf	1	;volatile
  2053  0015'                    l151:
  2054  0015' 0008               	return
  2055  0016'                    __end_of_Servo_Init:
  2056                           
  2057                           	psect	text9
  2058  0000'                    __ptext9:	
  2059 ;; *************** function _Servo_8_Write *****************
  2060 ;; Defined at:
  2061 ;;		line 124 in file "servo.c"
  2062 ;; Parameters:    Size  Location     Type
  2063 ;;  ang             1    wreg     unsigned char 
  2064 ;; Auto vars:     Size  Location     Type
  2065 ;;  ang             1   18[BANK1 ] unsigned char 
  2066 ;; Return value:  Size  Location     Type
  2067 ;;                  1    wreg      void 
  2068 ;; Registers used:
  2069 ;;		wreg, status,2, status,0, pclath, cstack
  2070 ;; Tracked objects:
  2071 ;;		On entry : 0/0
  2072 ;;		On exit  : 0/0
  2073 ;;		Unchanged: 0/0
  2074 ;; Data sizes:     COMMON   BANK0   BANK1   BANK2
  2075 ;;      Params:         0       0       0       0
  2076 ;;      Locals:         0       0       1       0
  2077 ;;      Temps:          0       0       3       0
  2078 ;;      Totals:         0       0       4       0
  2079 ;;Total ram usage:        4 bytes
  2080 ;; Hardware stack levels used: 1
  2081 ;; Hardware stack levels required when called: 4
  2082 ;; This function calls:
  2083 ;;		___awdiv
  2084 ;;		___wmul
  2085 ;; This function is called by:
  2086 ;;		_main
  2087 ;; This function uses a non-reentrant model
  2088 ;;
  2089                           
  2090  0000'                    _Servo_8_Write:	
  2091                           ;psect for function _Servo_8_Write
  2092                           
  2093                           
  2094                           ;incstack = 0
  2095                           ; Regs used in _Servo_8_Write: [wreg+status,2+status,0+pclath+cstack]
  2096                           ;Servo_8_Write@ang stored from wreg
  2097  0000' 1683               	bsf	3,5	;RP0=1, select bank1
  2098  0001' 1303               	bcf	3,6	;RP1=0, select bank1
  2099  0002' 0080'              	movwf	Servo_8_Write@ang^(0+128)
  2100  0003'                    l2440:
  2101                           
  2102                           ;servo.c: 124: void Servo_8_Write(unsigned char ang);servo.c: 125: {;servo.c: 126:     d
      +                          ata_s[7] = (ang-0)*(4 -1)/(180-0)+1;
  2103  0003' 30B4               	movlw	180
  2104  0004' 0080'              	movwf	___awdiv@divisor^(0+128)
  2105  0005' 3000               	movlw	0
  2106  0006' 0081'              	movwf	(___awdiv@divisor^(0+128)+1)
  2107  0007' 0800'              	movf	Servo_8_Write@ang^(0+128),w
  2108  0008' 0080'              	movwf	??_Servo_8_Write^(0+128)
  2109  0009' 0181'              	clrf	(??_Servo_8_Write^(0+128)+1)
  2110  000A' 0800'              	movf	??_Servo_8_Write^(0+128),w
  2111  000B' 0080'              	movwf	___wmul@multiplier^(0+128)
  2112  000C' 0800'              	movf	(??_Servo_8_Write+1)^(0+128),w
  2113  000D' 0080'              	movwf	(___wmul@multiplier+1)^(0+128)
  2114  000E' 3003               	movlw	3
  2115  000F' 0080'              	movwf	___wmul@multiplicand^(0+128)
  2116  0010' 3000               	movlw	0
  2117  0011' 0081'              	movwf	(___wmul@multiplicand^(0+128)+1)
  2118  0012' 2000'              	fcall	___wmul
  2119  0013' 1683               	bsf	3,5	;RP0=1, select bank1
  2120  0014' 1303               	bcf	3,6	;RP1=0, select bank1
  2121  0015' 0800'              	movf	(?___wmul+1)^(0+128),w
  2122  0016' 0080'              	movwf	(___awdiv@dividend+1)^(0+128)
  2123  0017' 0800'              	movf	?___wmul^(0+128),w
  2124  0018' 0080'              	movwf	___awdiv@dividend^(0+128)
  2125  0019' 2000'              	fcall	___awdiv
  2126  001A' 1683               	bsf	3,5	;RP0=1, select bank1
  2127  001B' 1303               	bcf	3,6	;RP1=0, select bank1
  2128  001C' 0800'              	movf	?___awdiv^(0+128),w
  2129  001D' 3E01               	addlw	1
  2130  001E' 0080'              	movwf	(??_Servo_8_Write+2)^(0+128)
  2131  001F' 0800'              	movf	(??_Servo_8_Write+2)^(0+128),w
  2132  0020' 1283               	bcf	3,5	;RP0=0, select bank0
  2133  0021' 1303               	bcf	3,6	;RP1=0, select bank0
  2134  0022' 0087'              	movwf	_data_s+7
  2135  0023'                    l154:
  2136  0023' 0008               	return
  2137  0024'                    __end_of_Servo_8_Write:
  2138                           
  2139                           	psect	text10
  2140  0000'                    __ptext10:	
  2141 ;; *************** function ___wmul *****************
  2142 ;; Defined at:
  2143 ;;		line 15 in file "C:\Program Files\Microchip\xc8\v2.36\pic\sources\c90\common\Umul16.c"
  2144 ;; Parameters:    Size  Location     Type
  2145 ;;  multiplier      2    0[BANK1 ] unsigned int 
  2146 ;;  multiplicand    2    2[BANK1 ] unsigned int 
  2147 ;; Auto vars:     Size  Location     Type
  2148 ;;  product         2    4[BANK1 ] unsigned int 
  2149 ;; Return value:  Size  Location     Type
  2150 ;;                  2    0[BANK1 ] unsigned int 
  2151 ;; Registers used:
  2152 ;;		wreg, status,2, status,0
  2153 ;; Tracked objects:
  2154 ;;		On entry : 0/0
  2155 ;;		On exit  : 0/0
  2156 ;;		Unchanged: 0/0
  2157 ;; Data sizes:     COMMON   BANK0   BANK1   BANK2
  2158 ;;      Params:         0       0       4       0
  2159 ;;      Locals:         0       0       2       0
  2160 ;;      Temps:          0       0       0       0
  2161 ;;      Totals:         0       0       6       0
  2162 ;;Total ram usage:        6 bytes
  2163 ;; Hardware stack levels used: 1
  2164 ;; Hardware stack levels required when called: 3
  2165 ;; This function calls:
  2166 ;;		Nothing
  2167 ;; This function is called by:
  2168 ;;		_Servo_8_Write
  2169 ;; This function uses a non-reentrant model
  2170 ;;
  2171                           
  2172  0000'                    ___wmul:	
  2173                           ;psect for function ___wmul
  2174                           
  2175  0000'                    l2322:	
  2176                           ;incstack = 0
  2177                           ; Regs used in ___wmul: [wreg+status,2+status,0]
  2178                           
  2179  0000' 1683               	bsf	3,5	;RP0=1, select bank1
  2180  0001' 1303               	bcf	3,6	;RP1=0, select bank1
  2181  0002' 0180'              	clrf	___wmul@product^(0+128)
  2182  0003' 0180'              	clrf	(___wmul@product+1)^(0+128)
  2183  0004'                    l2324:
  2184  0004' 1C00'              	btfss	___wmul@multiplier^(0+128),0
  2185  0005' 2807'              	goto	u2901
  2186  0006' 2808'              	goto	u2900
  2187  0007'                    u2901:
  2188  0007' 280E'              	goto	l256
  2189  0008'                    u2900:
  2190  0008'                    l2326:
  2191  0008' 0800'              	movf	___wmul@multiplicand^(0+128),w
  2192  0009' 0780'              	addwf	___wmul@product^(0+128),f
  2193  000A' 1803               	skipnc
  2194  000B' 0A80'              	incf	(___wmul@product+1)^(0+128),f
  2195  000C' 0800'              	movf	(___wmul@multiplicand+1)^(0+128),w
  2196  000D' 0780'              	addwf	(___wmul@product+1)^(0+128),f
  2197  000E'                    l256:
  2198  000E' 3001               	movlw	1
  2199  000F'                    u2915:
  2200  000F' 1003               	clrc
  2201  0010' 0D80'              	rlf	___wmul@multiplicand^(0+128),f
  2202  0011' 0D80'              	rlf	(___wmul@multiplicand+1)^(0+128),f
  2203  0012' 3EFF               	addlw	-1
  2204  0013' 1D03               	skipz
  2205  0014' 280F'              	goto	u2915
  2206  0015'                    l2328:
  2207  0015' 3001               	movlw	1
  2208  0016'                    u2925:
  2209  0016' 1003               	clrc
  2210  0017' 0C80'              	rrf	(___wmul@multiplier+1)^(0+128),f
  2211  0018' 0C80'              	rrf	___wmul@multiplier^(0+128),f
  2212  0019' 3EFF               	addlw	-1
  2213  001A' 1D03               	skipz
  2214  001B' 2816'              	goto	u2925
  2215  001C'                    l2330:
  2216  001C' 0800'              	movf	___wmul@multiplier^(0+128),w
  2217  001D' 0400'              	iorwf	(___wmul@multiplier+1)^(0+128),w
  2218  001E' 1D03               	btfss	3,2
  2219  001F' 2821'              	goto	u2931
  2220  0020' 2822'              	goto	u2930
  2221  0021'                    u2931:
  2222  0021' 2804'              	goto	l2324
  2223  0022'                    u2930:
  2224  0022'                    l2332:
  2225  0022' 0800'              	movf	(___wmul@product+1)^(0+128),w
  2226  0023' 0080'              	movwf	(?___wmul+1)^(0+128)
  2227  0024' 0800'              	movf	___wmul@product^(0+128),w
  2228  0025' 0080'              	movwf	?___wmul^(0+128)
  2229  0026'                    l258:
  2230  0026' 0008               	return
  2231  0027'                    __end_of___wmul:
  2232                           
  2233                           	psect	text11
  2234  0000'                    __ptext11:	
  2235 ;; *************** function ___awdiv *****************
  2236 ;; Defined at:
  2237 ;;		line 5 in file "C:\Program Files\Microchip\xc8\v2.36\pic\sources\c90\common\awdiv.c"
  2238 ;; Parameters:    Size  Location     Type
  2239 ;;  divisor         2    6[BANK1 ] int 
  2240 ;;  dividend        2    8[BANK1 ] int 
  2241 ;; Auto vars:     Size  Location     Type
  2242 ;;  quotient        2   13[BANK1 ] int 
  2243 ;;  sign            1   12[BANK1 ] unsigned char 
  2244 ;;  counter         1   11[BANK1 ] unsigned char 
  2245 ;; Return value:  Size  Location     Type
  2246 ;;                  2    6[BANK1 ] int 
  2247 ;; Registers used:
  2248 ;;		wreg, status,2, status,0
  2249 ;; Tracked objects:
  2250 ;;		On entry : 0/0
  2251 ;;		On exit  : 0/0
  2252 ;;		Unchanged: 0/0
  2253 ;; Data sizes:     COMMON   BANK0   BANK1   BANK2
  2254 ;;      Params:         0       0       4       0
  2255 ;;      Locals:         0       0       4       0
  2256 ;;      Temps:          0       0       1       0
  2257 ;;      Totals:         0       0       9       0
  2258 ;;Total ram usage:        9 bytes
  2259 ;; Hardware stack levels used: 1
  2260 ;; Hardware stack levels required when called: 3
  2261 ;; This function calls:
  2262 ;;		Nothing
  2263 ;; This function is called by:
  2264 ;;		_Servo_8_Write
  2265 ;; This function uses a non-reentrant model
  2266 ;;
  2267                           
  2268  0000'                    ___awdiv:	
  2269                           ;psect for function ___awdiv
  2270                           
  2271  0000'                    l2336:	
  2272                           ;incstack = 0
  2273                           ; Regs used in ___awdiv: [wreg+status,2+status,0]
  2274                           
  2275  0000' 1683               	bsf	3,5	;RP0=1, select bank1
  2276  0001' 1303               	bcf	3,6	;RP1=0, select bank1
  2277  0002' 0180'              	clrf	___awdiv@sign^(0+128)
  2278  0003'                    l2338:
  2279  0003' 1F80'              	btfss	(___awdiv@divisor+1)^(0+128),7
  2280  0004' 2806'              	goto	u2941
  2281  0005' 2807'              	goto	u2940
  2282  0006'                    u2941:
  2283  0006' 280E'              	goto	l2344
  2284  0007'                    u2940:
  2285  0007'                    l2340:
  2286  0007' 0980'              	comf	___awdiv@divisor^(0+128),f
  2287  0008' 0980'              	comf	(___awdiv@divisor+1)^(0+128),f
  2288  0009' 0A80'              	incf	___awdiv@divisor^(0+128),f
  2289  000A' 1903               	skipnz
  2290  000B' 0A80'              	incf	(___awdiv@divisor+1)^(0+128),f
  2291  000C'                    l2342:
  2292  000C' 0180'              	clrf	___awdiv@sign^(0+128)
  2293  000D' 0A80'              	incf	___awdiv@sign^(0+128),f
  2294  000E'                    l2344:
  2295  000E' 1F80'              	btfss	(___awdiv@dividend+1)^(0+128),7
  2296  000F' 2811'              	goto	u2951
  2297  0010' 2812'              	goto	u2950
  2298  0011'                    u2951:
  2299  0011' 281B'              	goto	l2350
  2300  0012'                    u2950:
  2301  0012'                    l2346:
  2302  0012' 0980'              	comf	___awdiv@dividend^(0+128),f
  2303  0013' 0980'              	comf	(___awdiv@dividend+1)^(0+128),f
  2304  0014' 0A80'              	incf	___awdiv@dividend^(0+128),f
  2305  0015' 1903               	skipnz
  2306  0016' 0A80'              	incf	(___awdiv@dividend+1)^(0+128),f
  2307  0017'                    l2348:
  2308  0017' 3001               	movlw	1
  2309  0018' 0080'              	movwf	??___awdiv^(0+128)
  2310  0019' 0800'              	movf	??___awdiv^(0+128),w
  2311  001A' 0680'              	xorwf	___awdiv@sign^(0+128),f
  2312  001B'                    l2350:
  2313  001B' 0180'              	clrf	___awdiv@quotient^(0+128)
  2314  001C' 0180'              	clrf	(___awdiv@quotient+1)^(0+128)
  2315  001D'                    l2352:
  2316  001D' 0800'              	movf	___awdiv@divisor^(0+128),w
  2317  001E' 0400'              	iorwf	(___awdiv@divisor+1)^(0+128),w
  2318  001F' 1903               	btfsc	3,2
  2319  0020' 2822'              	goto	u2961
  2320  0021' 2823'              	goto	u2960
  2321  0022'                    u2961:
  2322  0022' 285A'              	goto	l2372
  2323  0023'                    u2960:
  2324  0023'                    l2354:
  2325  0023' 0180'              	clrf	___awdiv@counter^(0+128)
  2326  0024' 0A80'              	incf	___awdiv@counter^(0+128),f
  2327  0025' 2831'              	goto	l2360
  2328  0026'                    l2356:
  2329  0026' 3001               	movlw	1
  2330  0027'                    u2975:
  2331  0027' 1003               	clrc
  2332  0028' 0D80'              	rlf	___awdiv@divisor^(0+128),f
  2333  0029' 0D80'              	rlf	(___awdiv@divisor+1)^(0+128),f
  2334  002A' 3EFF               	addlw	-1
  2335  002B' 1D03               	skipz
  2336  002C' 2827'              	goto	u2975
  2337  002D'                    l2358:
  2338  002D' 3001               	movlw	1
  2339  002E' 0080'              	movwf	??___awdiv^(0+128)
  2340  002F' 0800'              	movf	??___awdiv^(0+128),w
  2341  0030' 0780'              	addwf	___awdiv@counter^(0+128),f
  2342  0031'                    l2360:
  2343  0031' 1F80'              	btfss	(___awdiv@divisor+1)^(0+128),7
  2344  0032' 2834'              	goto	u2981
  2345  0033' 2835'              	goto	u2980
  2346  0034'                    u2981:
  2347  0034' 2826'              	goto	l2356
  2348  0035'                    u2980:
  2349  0035'                    l2362:
  2350  0035' 3001               	movlw	1
  2351  0036'                    u2995:
  2352  0036' 1003               	clrc
  2353  0037' 0D80'              	rlf	___awdiv@quotient^(0+128),f
  2354  0038' 0D80'              	rlf	(___awdiv@quotient+1)^(0+128),f
  2355  0039' 3EFF               	addlw	-1
  2356  003A' 1D03               	skipz
  2357  003B' 2836'              	goto	u2995
  2358  003C' 0800'              	movf	(___awdiv@divisor+1)^(0+128),w
  2359  003D' 0200'              	subwf	(___awdiv@dividend+1)^(0+128),w
  2360  003E' 1D03               	skipz
  2361  003F' 2842'              	goto	u3005
  2362  0040' 0800'              	movf	___awdiv@divisor^(0+128),w
  2363  0041' 0200'              	subwf	___awdiv@dividend^(0+128),w
  2364  0042'                    u3005:
  2365  0042' 1C03               	skipc
  2366  0043' 2845'              	goto	u3001
  2367  0044' 2846'              	goto	u3000
  2368  0045'                    u3001:
  2369  0045' 284D'              	goto	l2368
  2370  0046'                    u3000:
  2371  0046'                    l2364:
  2372  0046' 0800'              	movf	___awdiv@divisor^(0+128),w
  2373  0047' 0280'              	subwf	___awdiv@dividend^(0+128),f
  2374  0048' 0800'              	movf	(___awdiv@divisor+1)^(0+128),w
  2375  0049' 1C03               	skipc
  2376  004A' 0380'              	decf	(___awdiv@dividend+1)^(0+128),f
  2377  004B' 0280'              	subwf	(___awdiv@dividend+1)^(0+128),f
  2378  004C'                    l2366:
  2379  004C' 1400'              	bsf	___awdiv@quotient^(0+128),0
  2380  004D'                    l2368:
  2381  004D' 3001               	movlw	1
  2382  004E'                    u3015:
  2383  004E' 1003               	clrc
  2384  004F' 0C80'              	rrf	(___awdiv@divisor+1)^(0+128),f
  2385  0050' 0C80'              	rrf	___awdiv@divisor^(0+128),f
  2386  0051' 3EFF               	addlw	-1
  2387  0052' 1D03               	skipz
  2388  0053' 284E'              	goto	u3015
  2389  0054'                    l2370:
  2390  0054' 3001               	movlw	1
  2391  0055' 0280'              	subwf	___awdiv@counter^(0+128),f
  2392  0056' 1D03               	btfss	3,2
  2393  0057' 2859'              	goto	u3021
  2394  0058' 285A'              	goto	u3020
  2395  0059'                    u3021:
  2396  0059' 2835'              	goto	l2362
  2397  005A'                    u3020:
  2398  005A'                    l2372:
  2399  005A' 0800'              	movf	___awdiv@sign^(0+128),w
  2400  005B' 1903               	btfsc	3,2
  2401  005C' 285E'              	goto	u3031
  2402  005D' 285F'              	goto	u3030
  2403  005E'                    u3031:
  2404  005E' 2864'              	goto	l2376
  2405  005F'                    u3030:
  2406  005F'                    l2374:
  2407  005F' 0980'              	comf	___awdiv@quotient^(0+128),f
  2408  0060' 0980'              	comf	(___awdiv@quotient+1)^(0+128),f
  2409  0061' 0A80'              	incf	___awdiv@quotient^(0+128),f
  2410  0062' 1903               	skipnz
  2411  0063' 0A80'              	incf	(___awdiv@quotient+1)^(0+128),f
  2412  0064'                    l2376:
  2413  0064' 0800'              	movf	(___awdiv@quotient+1)^(0+128),w
  2414  0065' 0080'              	movwf	(?___awdiv+1)^(0+128)
  2415  0066' 0800'              	movf	___awdiv@quotient^(0+128),w
  2416  0067' 0080'              	movwf	?___awdiv^(0+128)
  2417  0068'                    l409:
  2418  0068' 0008               	return
  2419  0069'                    __end_of___awdiv:
  2420                           
  2421                           	psect	text12
  2422  0000'                    __ptext12:	
  2423 ;; *************** function _TMR0_ISR *****************
  2424 ;; Defined at:
  2425 ;;		line 136 in file "servo.c"
  2426 ;; Parameters:    Size  Location     Type
  2427 ;;		None
  2428 ;; Auto vars:     Size  Location     Type
  2429 ;;		None
  2430 ;; Return value:  Size  Location     Type
  2431 ;;                  1    wreg      void 
  2432 ;; Registers used:
  2433 ;;		wreg, status,2, status,0, btemp+1, pclath, cstack
  2434 ;; Tracked objects:
  2435 ;;		On entry : 0/0
  2436 ;;		On exit  : 0/0
  2437 ;;		Unchanged: 0/0
  2438 ;; Data sizes:     COMMON   BANK0   BANK1   BANK2
  2439 ;;      Params:         0       0       0       0
  2440 ;;      Locals:         0       0       0       0
  2441 ;;      Temps:          0       5       0       0
  2442 ;;      Totals:         0       5       0       0
  2443 ;;Total ram usage:        5 bytes
  2444 ;; Hardware stack levels used: 1
  2445 ;; Hardware stack levels required when called: 2
  2446 ;; This function calls:
  2447 ;;		___fldiv
  2448 ;;		___flmul
  2449 ;;		___fltol
  2450 ;;		___xxtofl
  2451 ;; This function is called by:
  2452 ;;		Interrupt level 1
  2453 ;; This function uses a non-reentrant model
  2454 ;;
  2455                           
  2456  0000'                    _TMR0_ISR:	
  2457                           ;psect for function _TMR0_ISR
  2458                           
  2459  0000'                    i1l2196:
  2460                           
  2461                           ;servo.c: 138:     if(PIR1bits.CCP1IF == 1){
  2462  0000' 1D0C               	btfss	12,2	;volatile
  2463  0001' 2803'              	goto	u275_21
  2464  0002' 2804'              	goto	u275_20
  2465  0003'                    u275_21:
  2466  0003' 2852'              	goto	i1l2210
  2467  0004'                    u275_20:
  2468  0004'                    i1l2198:
  2469                           
  2470                           ;servo.c: 139:         valor_pasos = (CCPR1H << 8) + CCPR1L;
  2471  0004' 0816               	movf	22,w	;volatile
  2472  0005' 008B'              	movwf	_valor_pasos+1
  2473  0006' 0815               	movf	21,w	;volatile
  2474  0007' 008A'              	movwf	_valor_pasos
  2475  0008'                    i1l2200:
  2476                           
  2477                           ;servo.c: 140:         TMR1L = 0x00;
  2478  0008' 018E               	clrf	14	;volatile
  2479  0009'                    i1l2202:
  2480                           
  2481                           ;servo.c: 141:         TMR1H = 0x00;
  2482  0009' 018F               	clrf	15	;volatile
  2483  000A'                    i1l2204:
  2484                           
  2485                           ;servo.c: 142:         periodo = valor_pasos * 0.000008;
  2486  000A' 3037               	movlw	55
  2487  000B' 0083'              	movwf	___flmul@b+3
  2488  000C' 3006               	movlw	6
  2489  000D' 0082'              	movwf	___flmul@b+2
  2490  000E' 3037               	movlw	55
  2491  000F' 0081'              	movwf	___flmul@b+1
  2492  0010' 30BD               	movlw	189
  2493  0011' 0080'              	movwf	___flmul@b
  2494  0012' 080A'              	movf	_valor_pasos,w
  2495  0013' 0080'              	movwf	___xxtofl@val
  2496  0014' 080B'              	movf	_valor_pasos+1,w
  2497  0015' 0081'              	movwf	___xxtofl@val+1
  2498  0016' 0182'              	clrf	___xxtofl@val+2
  2499  0017' 0183'              	clrf	___xxtofl@val+3
  2500  0018' 3000               	movlw	0
  2501  0019' 2000'              	fcall	___xxtofl
  2502  001A' 0803'              	movf	?___xxtofl+3,w
  2503  001B' 1283               	bcf	3,5	;RP0=0, select bank0
  2504  001C' 1303               	bcf	3,6	;RP1=0, select bank0
  2505  001D' 0087'              	movwf	___flmul@a+3
  2506  001E' 0802'              	movf	?___xxtofl+2,w
  2507  001F' 0086'              	movwf	___flmul@a+2
  2508  0020' 0801'              	movf	?___xxtofl+1,w
  2509  0021' 0085'              	movwf	___flmul@a+1
  2510  0022' 0800'              	movf	?___xxtofl,w
  2511  0023' 0084'              	movwf	___flmul@a
  2512  0024' 2000'              	fcall	___flmul
  2513  0025' 1283               	bcf	3,5	;RP0=0, select bank0
  2514  0026' 1303               	bcf	3,6	;RP1=0, select bank0
  2515  0027' 0803'              	movf	?___flmul+3,w
  2516  0028' 0091'              	movwf	_periodo+3
  2517  0029' 0802'              	movf	?___flmul+2,w
  2518  002A' 0090'              	movwf	_periodo+2
  2519  002B' 0801'              	movf	?___flmul+1,w
  2520  002C' 008F'              	movwf	_periodo+1
  2521  002D' 0800'              	movf	?___flmul,w
  2522  002E' 008E'              	movwf	_periodo
  2523  002F'                    i1l2206:
  2524                           
  2525                           ;servo.c: 143:         frecuencia = 1 / periodo;
  2526  002F' 303F               	movlw	63
  2527  0030' 0087'              	movwf	___fldiv@b+3
  2528  0031' 3080               	movlw	128
  2529  0032' 0086'              	movwf	___fldiv@b+2
  2530  0033' 3000               	movlw	0
  2531  0034' 0085'              	movwf	___fldiv@b+1
  2532  0035' 3000               	movlw	0
  2533  0036' 0084'              	movwf	___fldiv@b
  2534  0037' 0811'              	movf	_periodo+3,w
  2535  0038' 0083'              	movwf	___fldiv@a+3
  2536  0039' 0810'              	movf	_periodo+2,w
  2537  003A' 0082'              	movwf	___fldiv@a+2
  2538  003B' 080F'              	movf	_periodo+1,w
  2539  003C' 0081'              	movwf	___fldiv@a+1
  2540  003D' 080E'              	movf	_periodo,w
  2541  003E' 0080'              	movwf	___fldiv@a
  2542  003F' 2000'              	fcall	___fldiv
  2543  0040' 0803'              	movf	?___fldiv+3,w
  2544  0041' 1283               	bcf	3,5	;RP0=0, select bank0
  2545  0042' 1303               	bcf	3,6	;RP1=0, select bank0
  2546  0043' 0090'              	movwf	___fltol@f1+3
  2547  0044' 0802'              	movf	?___fldiv+2,w
  2548  0045' 008F'              	movwf	___fltol@f1+2
  2549  0046' 0801'              	movf	?___fldiv+1,w
  2550  0047' 008E'              	movwf	___fltol@f1+1
  2551  0048' 0800'              	movf	?___fldiv,w
  2552  0049' 008D'              	movwf	___fltol@f1
  2553  004A' 2000'              	fcall	___fltol
  2554  004B' 1283               	bcf	3,5	;RP0=0, select bank0
  2555  004C' 1303               	bcf	3,6	;RP1=0, select bank0
  2556  004D' 080E'              	movf	?___fltol+1,w
  2557  004E' 0089'              	movwf	_frecuencia+1
  2558  004F' 080D'              	movf	?___fltol,w
  2559  0050' 0088'              	movwf	_frecuencia
  2560  0051'                    i1l2208:
  2561                           
  2562                           ;servo.c: 144:         PIR1bits.CCP1IF = 0;
  2563  0051' 110C               	bcf	12,2	;volatile
  2564  0052'                    i1l2210:
  2565                           
  2566                           ;servo.c: 146:     if(INTCONbits.T0IF == 1)
  2567  0052' 1D0B               	btfss	11,2	;volatile
  2568  0053' 2855'              	goto	u276_21
  2569  0054' 2856'              	goto	u276_20
  2570  0055'                    u276_21:
  2571  0055' 287D'              	goto	i1l170
  2572  0056'                    u276_20:
  2573  0056'                    i1l2212:
  2574                           
  2575                           ;servo.c: 147:     {;servo.c: 148:         cont_sr = cont_sr + 1;
  2576  0056' 080C'              	movf	_cont_sr,w
  2577  0057' 3E01               	addlw	1
  2578  0058' 008C'              	movwf	_cont_sr
  2579  0059' 080D'              	movf	_cont_sr+1,w
  2580  005A' 1803               	skipnc
  2581  005B' 3E01               	addlw	1
  2582  005C' 3E00               	addlw	0
  2583  005D' 008D'              	movwf	_cont_sr+1
  2584  005E'                    i1l2214:
  2585                           
  2586                           ;servo.c: 149:         if(cont_sr > 41){
  2587  005E' 3000               	movlw	0
  2588  005F' 020D'              	subwf	_cont_sr+1,w
  2589  0060' 302A               	movlw	42
  2590  0061' 1903               	skipnz
  2591  0062' 020C'              	subwf	_cont_sr,w
  2592  0063' 1C03               	skipc
  2593  0064' 2866'              	goto	u277_21
  2594  0065' 2867'              	goto	u277_20
  2595  0066'                    u277_21:
  2596  0066' 2869'              	goto	i1l2218
  2597  0067'                    u277_20:
  2598  0067'                    i1l2216:
  2599                           
  2600                           ;servo.c: 150:             cont_sr = 0;
  2601  0067' 018C'              	clrf	_cont_sr
  2602  0068' 018D'              	clrf	_cont_sr+1
  2603  0069'                    i1l2218:
  2604                           
  2605                           ;servo.c: 181:         if(cont_sr < data_s[7]){PORTBbits.RB7 = 1;} else{PORTBbits.RB7 = 
      +                          0;}
  2606  0069' 0807'              	movf	_data_s+7,w
  2607  006A' 009A'              	movwf	??_TMR0_ISR
  2608  006B' 019B'              	clrf	??_TMR0_ISR+1
  2609  006C' 081B'              	movf	??_TMR0_ISR+1,w
  2610  006D' 020D'              	subwf	_cont_sr+1,w
  2611  006E' 1D03               	skipz
  2612  006F' 2872'              	goto	u278_25
  2613  0070' 081A'              	movf	??_TMR0_ISR,w
  2614  0071' 020C'              	subwf	_cont_sr,w
  2615  0072'                    u278_25:
  2616  0072' 1803               	skipnc
  2617  0073' 2875'              	goto	u278_21
  2618  0074' 2876'              	goto	u278_20
  2619  0075'                    u278_21:
  2620  0075' 2878'              	goto	i1l168
  2621  0076'                    u278_20:
  2622  0076'                    i1l2220:
  2623  0076' 1786               	bsf	6,7	;volatile
  2624  0077' 2879'              	goto	i1l2222
  2625  0078'                    i1l168:
  2626  0078' 1386               	bcf	6,7	;volatile
  2627  0079'                    i1l2222:
  2628                           
  2629                           ;servo.c: 184:         TMR0 = 5;
  2630  0079' 3005               	movlw	5
  2631  007A' 0081               	movwf	1	;volatile
  2632  007B'                    i1l2224:
  2633                           
  2634                           ;servo.c: 185:         INTCONbits.T0IF = 0;
  2635  007B' 110B               	bcf	11,2	;volatile
  2636  007C'                    i1l2226:
  2637                           
  2638                           ;servo.c: 186:         INTCONbits.T0IE = 1;
  2639  007C' 168B               	bsf	11,5	;volatile
  2640  007D'                    i1l170:
  2641  007D' 081E'              	movf	??_TMR0_ISR+4,w
  2642  007E' 00FF               	movwf	btemp+1
  2643  007F' 081D'              	movf	??_TMR0_ISR+3,w
  2644  0080' 008A               	movwf	10
  2645  0081' 0E1C'              	swapf	??_TMR0_ISR+2,w
  2646  0082' 0083               	movwf	3
  2647  0083' 0EFE               	swapf	btemp,f
  2648  0084' 0E7E               	swapf	btemp,w
  2649  0085' 0009               	retfie
  2650  0086'                    __end_of_TMR0_ISR:
  2651                           
  2652                           	psect	intentry
  2653  0000'                    __pintentry:	
  2654                           ;incstack = 0
  2655                           ; Regs used in _TMR0_ISR: [wreg+status,2+status,0+btemp+1+pclath+cstack]
  2656                           
  2657  0000'                    interrupt_function:
  2658  007E                     saved_w	set	btemp
  2659  0000' 00FE               	movwf	btemp
  2660  0001' 0E03               	swapf	3,w
  2661  0002' 1283               	bcf	3,5	;RP0=0, select bank0
  2662  0003' 1303               	bcf	3,6	;RP1=0, select bank0
  2663  0004' 009C'              	movwf	??_TMR0_ISR+2
  2664  0005' 080A               	movf	10,w
  2665  0006' 009D'              	movwf	??_TMR0_ISR+3
  2666  0007' 087F               	movf	btemp+1,w
  2667  0008' 009E'              	movwf	??_TMR0_ISR+4
  2668  0009' 2800'              	ljmp	_TMR0_ISR
  2669                           
  2670                           	psect	text13
  2671  0000'                    __ptext13:	
  2672 ;; *************** function ___xxtofl *****************
  2673 ;; Defined at:
  2674 ;;		line 10 in file "C:\Program Files\Microchip\xc8\v2.36\pic\sources\c90\common\xxtofl.c"
  2675 ;; Parameters:    Size  Location     Type
  2676 ;;  sign            1    wreg     unsigned char 
  2677 ;;  val             4    0[COMMON] long 
  2678 ;; Auto vars:     Size  Location     Type
  2679 ;;  sign            1    8[COMMON] unsigned char 
  2680 ;;  arg             4   10[COMMON] unsigned long 
  2681 ;;  exp             1    9[COMMON] unsigned char 
  2682 ;; Return value:  Size  Location     Type
  2683 ;;                  4    0[COMMON] unsigned char 
  2684 ;; Registers used:
  2685 ;;		wreg, status,2, status,0
  2686 ;; Tracked objects:
  2687 ;;		On entry : 0/0
  2688 ;;		On exit  : 0/0
  2689 ;;		Unchanged: 0/0
  2690 ;; Data sizes:     COMMON   BANK0   BANK1   BANK2
  2691 ;;      Params:         4       0       0       0
  2692 ;;      Locals:         6       0       0       0
  2693 ;;      Temps:          4       0       0       0
  2694 ;;      Totals:        14       0       0       0
  2695 ;;Total ram usage:       14 bytes
  2696 ;; Hardware stack levels used: 1
  2697 ;; This function calls:
  2698 ;;		Nothing
  2699 ;; This function is called by:
  2700 ;;		_TMR0_ISR
  2701 ;; This function uses a non-reentrant model
  2702 ;;
  2703                           
  2704  0000'                    ___xxtofl:	
  2705                           ;psect for function ___xxtofl
  2706                           
  2707                           
  2708                           ;incstack = 0
  2709                           ; Regs used in ___xxtofl: [wreg+status,2+status,0]
  2710                           ;___xxtofl@sign stored from wreg
  2711  0000' 0088'              	movwf	___xxtofl@sign
  2712  0001'                    i1l2046:
  2713  0001' 0808'              	movf	___xxtofl@sign,w
  2714  0002' 1903               	btfsc	3,2
  2715  0003' 2805'              	goto	u248_21
  2716  0004' 2806'              	goto	u248_20
  2717  0005'                    u248_21:
  2718  0005' 281A'              	goto	i1l2052
  2719  0006'                    u248_20:
  2720  0006'                    i1l2048:
  2721  0006' 1F83'              	btfss	___xxtofl@val+3,7
  2722  0007' 2809'              	goto	u249_21
  2723  0008' 280A'              	goto	u249_20
  2724  0009'                    u249_21:
  2725  0009' 281A'              	goto	i1l2052
  2726  000A'                    u249_20:
  2727  000A'                    i1l2050:
  2728  000A' 0900'              	comf	___xxtofl@val,w
  2729  000B' 008A'              	movwf	___xxtofl@arg
  2730  000C' 0901'              	comf	___xxtofl@val+1,w
  2731  000D' 008B'              	movwf	___xxtofl@arg+1
  2732  000E' 0902'              	comf	___xxtofl@val+2,w
  2733  000F' 008C'              	movwf	___xxtofl@arg+2
  2734  0010' 0903'              	comf	___xxtofl@val+3,w
  2735  0011' 008D'              	movwf	___xxtofl@arg+3
  2736  0012' 0A8A'              	incf	___xxtofl@arg,f
  2737  0013' 1903               	skipnz
  2738  0014' 0A8B'              	incf	___xxtofl@arg+1,f
  2739  0015' 1903               	skipnz
  2740  0016' 0A8C'              	incf	___xxtofl@arg+2,f
  2741  0017' 1903               	skipnz
  2742  0018' 0A8D'              	incf	___xxtofl@arg+3,f
  2743  0019' 2822'              	goto	i1l689
  2744  001A'                    i1l2052:
  2745  001A' 0803'              	movf	___xxtofl@val+3,w
  2746  001B' 008D'              	movwf	___xxtofl@arg+3
  2747  001C' 0802'              	movf	___xxtofl@val+2,w
  2748  001D' 008C'              	movwf	___xxtofl@arg+2
  2749  001E' 0801'              	movf	___xxtofl@val+1,w
  2750  001F' 008B'              	movwf	___xxtofl@arg+1
  2751  0020' 0800'              	movf	___xxtofl@val,w
  2752  0021' 008A'              	movwf	___xxtofl@arg
  2753  0022'                    i1l689:
  2754  0022' 0803'              	movf	___xxtofl@val+3,w
  2755  0023' 0402'              	iorwf	___xxtofl@val+2,w
  2756  0024' 0401'              	iorwf	___xxtofl@val+1,w
  2757  0025' 0400'              	iorwf	___xxtofl@val,w
  2758  0026' 1D03               	skipz
  2759  0027' 2829'              	goto	u250_21
  2760  0028' 282A'              	goto	u250_20
  2761  0029'                    u250_21:
  2762  0029' 2833'              	goto	i1l2058
  2763  002A'                    u250_20:
  2764  002A'                    i1l2054:
  2765  002A' 3000               	movlw	0
  2766  002B' 0083'              	movwf	?___xxtofl+3
  2767  002C' 3000               	movlw	0
  2768  002D' 0082'              	movwf	?___xxtofl+2
  2769  002E' 3000               	movlw	0
  2770  002F' 0081'              	movwf	?___xxtofl+1
  2771  0030' 3000               	movlw	0
  2772  0031' 0080'              	movwf	?___xxtofl
  2773  0032' 28B9'              	goto	i1l691
  2774  0033'                    i1l2058:
  2775  0033' 3096               	movlw	150
  2776  0034' 0084'              	movwf	??___xxtofl
  2777  0035' 0804'              	movf	??___xxtofl,w
  2778  0036' 0089'              	movwf	___xxtofl@exp
  2779  0037' 2845'              	goto	i1l2062
  2780  0038'                    i1l2060:
  2781  0038' 3001               	movlw	1
  2782  0039' 0084'              	movwf	??___xxtofl
  2783  003A' 0804'              	movf	??___xxtofl,w
  2784  003B' 0789'              	addwf	___xxtofl@exp,f
  2785  003C' 3001               	movlw	1
  2786  003D'                    u251_25:
  2787  003D' 1003               	clrc
  2788  003E' 0C8D'              	rrf	___xxtofl@arg+3,f
  2789  003F' 0C8C'              	rrf	___xxtofl@arg+2,f
  2790  0040' 0C8B'              	rrf	___xxtofl@arg+1,f
  2791  0041' 0C8A'              	rrf	___xxtofl@arg,f
  2792  0042' 3EFF               	addlw	-1
  2793  0043' 1D03               	skipz
  2794  0044' 283D'              	goto	u251_25
  2795  0045'                    i1l2062:
  2796  0045' 30FE               	movlw	254
  2797  0046' 050D'              	andwf	___xxtofl@arg+3,w
  2798  0047' 1D03               	btfss	3,2
  2799  0048' 284A'              	goto	u252_21
  2800  0049' 284B'              	goto	u252_20
  2801  004A'                    u252_21:
  2802  004A' 2838'              	goto	i1l2060
  2803  004B'                    u252_20:
  2804  004B' 2867'              	goto	i1l695
  2805  004C'                    i1l2064:
  2806  004C' 3001               	movlw	1
  2807  004D' 0084'              	movwf	??___xxtofl
  2808  004E' 0804'              	movf	??___xxtofl,w
  2809  004F' 0789'              	addwf	___xxtofl@exp,f
  2810  0050'                    i1l2066:
  2811  0050' 3001               	movlw	1
  2812  0051' 078A'              	addwf	___xxtofl@arg,f
  2813  0052' 3000               	movlw	0
  2814  0053' 1803               	skipnc
  2815  0054' 3001               	movlw	1
  2816  0055' 078B'              	addwf	___xxtofl@arg+1,f
  2817  0056' 3000               	movlw	0
  2818  0057' 1803               	skipnc
  2819  0058' 3001               	movlw	1
  2820  0059' 078C'              	addwf	___xxtofl@arg+2,f
  2821  005A' 3000               	movlw	0
  2822  005B' 1803               	skipnc
  2823  005C' 3001               	movlw	1
  2824  005D' 078D'              	addwf	___xxtofl@arg+3,f
  2825  005E'                    i1l2068:
  2826  005E' 3001               	movlw	1
  2827  005F'                    u253_25:
  2828  005F' 1003               	clrc
  2829  0060' 0C8D'              	rrf	___xxtofl@arg+3,f
  2830  0061' 0C8C'              	rrf	___xxtofl@arg+2,f
  2831  0062' 0C8B'              	rrf	___xxtofl@arg+1,f
  2832  0063' 0C8A'              	rrf	___xxtofl@arg,f
  2833  0064' 3EFF               	addlw	-1
  2834  0065' 1D03               	skipz
  2835  0066' 285F'              	goto	u253_25
  2836  0067'                    i1l695:
  2837  0067' 30FF               	movlw	255
  2838  0068' 050D'              	andwf	___xxtofl@arg+3,w
  2839  0069' 1D03               	btfss	3,2
  2840  006A' 286C'              	goto	u254_21
  2841  006B' 286D'              	goto	u254_20
  2842  006C'                    u254_21:
  2843  006C' 284C'              	goto	i1l2064
  2844  006D'                    u254_20:
  2845  006D' 2879'              	goto	i1l2072
  2846  006E'                    i1l2070:
  2847  006E' 3001               	movlw	1
  2848  006F' 0289'              	subwf	___xxtofl@exp,f
  2849  0070' 3001               	movlw	1
  2850  0071' 0084'              	movwf	??___xxtofl
  2851  0072'                    u255_25:
  2852  0072' 1003               	clrc
  2853  0073' 0D8A'              	rlf	___xxtofl@arg,f
  2854  0074' 0D8B'              	rlf	___xxtofl@arg+1,f
  2855  0075' 0D8C'              	rlf	___xxtofl@arg+2,f
  2856  0076' 0D8D'              	rlf	___xxtofl@arg+3,f
  2857  0077' 0B84'              	decfsz	??___xxtofl,f
  2858  0078' 2872'              	goto	u255_25
  2859  0079'                    i1l2072:
  2860  0079' 1B8C'              	btfsc	___xxtofl@arg+2,7
  2861  007A' 287C'              	goto	u256_21
  2862  007B' 287D'              	goto	u256_20
  2863  007C'                    u256_21:
  2864  007C' 2883'              	goto	i1l702
  2865  007D'                    u256_20:
  2866  007D'                    i1l2074:
  2867  007D' 3002               	movlw	2
  2868  007E' 0209'              	subwf	___xxtofl@exp,w
  2869  007F' 1803               	skipnc
  2870  0080' 2882'              	goto	u257_21
  2871  0081' 2883'              	goto	u257_20
  2872  0082'                    u257_21:
  2873  0082' 286E'              	goto	i1l2070
  2874  0083'                    u257_20:
  2875  0083'                    i1l702:
  2876  0083' 1809'              	btfsc	___xxtofl@exp,0
  2877  0084' 2886'              	goto	u258_21
  2878  0085' 2887'              	goto	u258_20
  2879  0086'                    u258_21:
  2880  0086' 288F'              	goto	i1l703
  2881  0087'                    u258_20:
  2882  0087'                    i1l2076:
  2883  0087' 30FF               	movlw	255
  2884  0088' 058A'              	andwf	___xxtofl@arg,f
  2885  0089' 30FF               	movlw	255
  2886  008A' 058B'              	andwf	___xxtofl@arg+1,f
  2887  008B' 307F               	movlw	127
  2888  008C' 058C'              	andwf	___xxtofl@arg+2,f
  2889  008D' 30FF               	movlw	255
  2890  008E' 058D'              	andwf	___xxtofl@arg+3,f
  2891  008F'                    i1l703:
  2892  008F' 1003               	clrc
  2893  0090' 0C89'              	rrf	___xxtofl@exp,f
  2894  0091'                    i1l2078:
  2895  0091' 0809'              	movf	___xxtofl@exp,w
  2896  0092' 0084'              	movwf	??___xxtofl
  2897  0093' 0185'              	clrf	??___xxtofl+1
  2898  0094' 0186'              	clrf	??___xxtofl+2
  2899  0095' 0187'              	clrf	??___xxtofl+3
  2900  0096' 3018               	movlw	24
  2901  0097'                    u259_25:
  2902  0097' 1003               	clrc
  2903  0098' 0D84'              	rlf	??___xxtofl,f
  2904  0099' 0D85'              	rlf	??___xxtofl+1,f
  2905  009A' 0D86'              	rlf	??___xxtofl+2,f
  2906  009B' 0D87'              	rlf	??___xxtofl+3,f
  2907  009C'                    u259_20:
  2908  009C' 3EFF               	addlw	-1
  2909  009D' 1D03               	skipz
  2910  009E' 2897'              	goto	u259_25
  2911  009F' 0804'              	movf	??___xxtofl,w
  2912  00A0' 048A'              	iorwf	___xxtofl@arg,f
  2913  00A1' 0805'              	movf	??___xxtofl+1,w
  2914  00A2' 048B'              	iorwf	___xxtofl@arg+1,f
  2915  00A3' 0806'              	movf	??___xxtofl+2,w
  2916  00A4' 048C'              	iorwf	___xxtofl@arg+2,f
  2917  00A5' 0807'              	movf	??___xxtofl+3,w
  2918  00A6' 048D'              	iorwf	___xxtofl@arg+3,f
  2919  00A7'                    i1l2080:
  2920  00A7' 0808'              	movf	___xxtofl@sign,w
  2921  00A8' 1903               	btfsc	3,2
  2922  00A9' 28AB'              	goto	u260_21
  2923  00AA' 28AC'              	goto	u260_20
  2924  00AB'                    u260_21:
  2925  00AB' 28B1'              	goto	i1l2086
  2926  00AC'                    u260_20:
  2927  00AC'                    i1l2082:
  2928  00AC' 1F83'              	btfss	___xxtofl@val+3,7
  2929  00AD' 28AF'              	goto	u261_21
  2930  00AE' 28B0'              	goto	u261_20
  2931  00AF'                    u261_21:
  2932  00AF' 28B1'              	goto	i1l2086
  2933  00B0'                    u261_20:
  2934  00B0'                    i1l2084:
  2935  00B0' 178D'              	bsf	___xxtofl@arg+3,7
  2936  00B1'                    i1l2086:
  2937  00B1' 080D'              	movf	___xxtofl@arg+3,w
  2938  00B2' 0083'              	movwf	?___xxtofl+3
  2939  00B3' 080C'              	movf	___xxtofl@arg+2,w
  2940  00B4' 0082'              	movwf	?___xxtofl+2
  2941  00B5' 080B'              	movf	___xxtofl@arg+1,w
  2942  00B6' 0081'              	movwf	?___xxtofl+1
  2943  00B7' 080A'              	movf	___xxtofl@arg,w
  2944  00B8' 0080'              	movwf	?___xxtofl
  2945  00B9'                    i1l691:
  2946  00B9' 0008               	return
  2947  00BA'                    __end_of___xxtofl:
  2948                           
  2949                           	psect	text14
  2950  0000'                    __ptext14:	
  2951 ;; *************** function ___fltol *****************
  2952 ;; Defined at:
  2953 ;;		line 43 in file "C:\Program Files\Microchip\xc8\v2.36\pic\sources\c90\common\fltol.c"
  2954 ;; Parameters:    Size  Location     Type
  2955 ;;  f1              4   13[BANK0 ] unsigned char 
  2956 ;; Auto vars:     Size  Location     Type
  2957 ;;  exp1            1   23[BANK0 ] unsigned char 
  2958 ;;  sign1           1   22[BANK0 ] unsigned char 
  2959 ;; Return value:  Size  Location     Type
  2960 ;;                  4   13[BANK0 ] long 
  2961 ;; Registers used:
  2962 ;;		wreg, status,2, status,0
  2963 ;; Tracked objects:
  2964 ;;		On entry : 0/0
  2965 ;;		On exit  : 0/0
  2966 ;;		Unchanged: 0/0
  2967 ;; Data sizes:     COMMON   BANK0   BANK1   BANK2
  2968 ;;      Params:         0       4       0       0
  2969 ;;      Locals:         0       2       0       0
  2970 ;;      Temps:          0       5       0       0
  2971 ;;      Totals:         0      11       0       0
  2972 ;;Total ram usage:       11 bytes
  2973 ;; Hardware stack levels used: 1
  2974 ;; This function calls:
  2975 ;;		Nothing
  2976 ;; This function is called by:
  2977 ;;		_TMR0_ISR
  2978 ;; This function uses a non-reentrant model
  2979 ;;
  2980                           
  2981  0000'                    ___fltol:	
  2982                           ;psect for function ___fltol
  2983                           
  2984  0000'                    i1l1728:	
  2985                           ;incstack = 0
  2986                           ; Regs used in ___fltol: [wreg+status,2+status,0]
  2987                           
  2988  0000' 1003               	clrc
  2989  0001' 1283               	bcf	3,5	;RP0=0, select bank0
  2990  0002' 1303               	bcf	3,6	;RP1=0, select bank0
  2991  0003' 0D0F'              	rlf	___fltol@f1+2,w
  2992  0004' 0D10'              	rlf	___fltol@f1+3,w
  2993  0005' 0091'              	movwf	??___fltol
  2994  0006' 0811'              	movf	??___fltol,w
  2995  0007' 0097'              	movwf	___fltol@exp1
  2996  0008' 0817'              	movf	___fltol@exp1,w
  2997  0009' 1D03               	btfss	3,2
  2998  000A' 280C'              	goto	u171_21
  2999  000B' 280D'              	goto	u171_20
  3000  000C'                    u171_21:
  3001  000C' 2816'              	goto	i1l1734
  3002  000D'                    u171_20:
  3003  000D'                    i1l1730:
  3004  000D' 3000               	movlw	0
  3005  000E' 0090'              	movwf	?___fltol+3
  3006  000F' 3000               	movlw	0
  3007  0010' 008F'              	movwf	?___fltol+2
  3008  0011' 3000               	movlw	0
  3009  0012' 008E'              	movwf	?___fltol+1
  3010  0013' 3000               	movlw	0
  3011  0014' 008D'              	movwf	?___fltol
  3012  0015' 287B'              	goto	i1l442
  3013  0016'                    i1l1734:
  3014  0016' 080D'              	movf	___fltol@f1,w
  3015  0017' 0091'              	movwf	??___fltol
  3016  0018' 080E'              	movf	___fltol@f1+1,w
  3017  0019' 0092'              	movwf	??___fltol+1
  3018  001A' 080F'              	movf	___fltol@f1+2,w
  3019  001B' 0093'              	movwf	??___fltol+2
  3020  001C' 0810'              	movf	___fltol@f1+3,w
  3021  001D' 0094'              	movwf	??___fltol+3
  3022  001E' 301F               	movlw	31
  3023  001F'                    u172_25:
  3024  001F' 1003               	clrc
  3025  0020' 0C94'              	rrf	??___fltol+3,f
  3026  0021' 0C93'              	rrf	??___fltol+2,f
  3027  0022' 0C92'              	rrf	??___fltol+1,f
  3028  0023' 0C91'              	rrf	??___fltol,f
  3029  0024'                    u172_20:
  3030  0024' 3EFF               	addlw	-1
  3031  0025' 1D03               	skipz
  3032  0026' 281F'              	goto	u172_25
  3033  0027' 0811'              	movf	??___fltol,w
  3034  0028' 0095'              	movwf	??___fltol+4
  3035  0029' 0815'              	movf	??___fltol+4,w
  3036  002A' 0096'              	movwf	___fltol@sign1
  3037  002B'                    i1l1736:
  3038  002B' 178F'              	bsf	___fltol@f1+2,7
  3039  002C'                    i1l1738:
  3040  002C' 30FF               	movlw	255
  3041  002D' 058D'              	andwf	___fltol@f1,f
  3042  002E' 30FF               	movlw	255
  3043  002F' 058E'              	andwf	___fltol@f1+1,f
  3044  0030' 30FF               	movlw	255
  3045  0031' 058F'              	andwf	___fltol@f1+2,f
  3046  0032' 3000               	movlw	0
  3047  0033' 0590'              	andwf	___fltol@f1+3,f
  3048  0034'                    i1l1740:
  3049  0034' 3096               	movlw	150
  3050  0035' 0297'              	subwf	___fltol@exp1,f
  3051  0036'                    i1l1742:
  3052  0036' 1F97'              	btfss	___fltol@exp1,7
  3053  0037' 2839'              	goto	u173_21
  3054  0038' 283A'              	goto	u173_20
  3055  0039'                    u173_21:
  3056  0039' 2854'              	goto	i1l1752
  3057  003A'                    u173_20:
  3058  003A'                    i1l1744:
  3059  003A' 0817'              	movf	___fltol@exp1,w
  3060  003B' 3A80               	xorlw	128
  3061  003C' 3E97               	addlw	151
  3062  003D' 1803               	skipnc
  3063  003E' 2840'              	goto	u174_21
  3064  003F' 2841'              	goto	u174_20
  3065  0040'                    u174_21:
  3066  0040' 2842'              	goto	i1l1750
  3067  0041'                    u174_20:
  3068  0041' 280D'              	goto	i1l1730
  3069  0042'                    i1l1750:
  3070  0042' 3001               	movlw	1
  3071  0043'                    u175_25:
  3072  0043' 1003               	clrc
  3073  0044' 0C90'              	rrf	___fltol@f1+3,f
  3074  0045' 0C8F'              	rrf	___fltol@f1+2,f
  3075  0046' 0C8E'              	rrf	___fltol@f1+1,f
  3076  0047' 0C8D'              	rrf	___fltol@f1,f
  3077  0048' 3EFF               	addlw	-1
  3078  0049' 1D03               	skipz
  3079  004A' 2843'              	goto	u175_25
  3080  004B' 3001               	movlw	1
  3081  004C' 0091'              	movwf	??___fltol
  3082  004D' 0811'              	movf	??___fltol,w
  3083  004E' 0797'              	addwf	___fltol@exp1,f
  3084  004F' 1D03               	btfss	3,2
  3085  0050' 2852'              	goto	u176_21
  3086  0051' 2853'              	goto	u176_20
  3087  0052'                    u176_21:
  3088  0052' 2842'              	goto	i1l1750
  3089  0053'                    u176_20:
  3090  0053' 286B'              	goto	i1l1760
  3091  0054'                    i1l1752:
  3092  0054' 3020               	movlw	32
  3093  0055' 0217'              	subwf	___fltol@exp1,w
  3094  0056' 1C03               	skipc
  3095  0057' 2859'              	goto	u177_21
  3096  0058' 285A'              	goto	u177_20
  3097  0059'                    u177_21:
  3098  0059' 2866'              	goto	i1l449
  3099  005A'                    u177_20:
  3100  005A' 280D'              	goto	i1l1730
  3101  005B'                    i1l1758:
  3102  005B' 3001               	movlw	1
  3103  005C' 0091'              	movwf	??___fltol
  3104  005D'                    u178_25:
  3105  005D' 1003               	clrc
  3106  005E' 0D8D'              	rlf	___fltol@f1,f
  3107  005F' 0D8E'              	rlf	___fltol@f1+1,f
  3108  0060' 0D8F'              	rlf	___fltol@f1+2,f
  3109  0061' 0D90'              	rlf	___fltol@f1+3,f
  3110  0062' 0B91'              	decfsz	??___fltol,f
  3111  0063' 285D'              	goto	u178_25
  3112  0064' 3001               	movlw	1
  3113  0065' 0297'              	subwf	___fltol@exp1,f
  3114  0066'                    i1l449:
  3115  0066' 0817'              	movf	___fltol@exp1,w
  3116  0067' 1D03               	btfss	3,2
  3117  0068' 286A'              	goto	u179_21
  3118  0069' 286B'              	goto	u179_20
  3119  006A'                    u179_21:
  3120  006A' 285B'              	goto	i1l1758
  3121  006B'                    u179_20:
  3122  006B'                    i1l1760:
  3123  006B' 0816'              	movf	___fltol@sign1,w
  3124  006C' 1903               	btfsc	3,2
  3125  006D' 286F'              	goto	u180_21
  3126  006E' 2870'              	goto	u180_20
  3127  006F'                    u180_21:
  3128  006F' 287B'              	goto	i1l452
  3129  0070'                    u180_20:
  3130  0070'                    i1l1762:
  3131  0070' 098D'              	comf	___fltol@f1,f
  3132  0071' 098E'              	comf	___fltol@f1+1,f
  3133  0072' 098F'              	comf	___fltol@f1+2,f
  3134  0073' 0990'              	comf	___fltol@f1+3,f
  3135  0074' 0A8D'              	incf	___fltol@f1,f
  3136  0075' 1903               	skipnz
  3137  0076' 0A8E'              	incf	___fltol@f1+1,f
  3138  0077' 1903               	skipnz
  3139  0078' 0A8F'              	incf	___fltol@f1+2,f
  3140  0079' 1903               	skipnz
  3141  007A' 0A90'              	incf	___fltol@f1+3,f
  3142  007B'                    i1l452:
  3143  007B'                    i1l442:
  3144  007B' 0008               	return
  3145  007C'                    __end_of___fltol:
  3146                           
  3147                           	psect	text15
  3148  0000'                    __ptext15:	
  3149 ;; *************** function ___flmul *****************
  3150 ;; Defined at:
  3151 ;;		line 8 in file "C:\Program Files\Microchip\xc8\v2.36\pic\sources\c90\common\sprcmul.c"
  3152 ;; Parameters:    Size  Location     Type
  3153 ;;  b               4    0[BANK0 ] long 
  3154 ;;  a               4    4[BANK0 ] long 
  3155 ;; Auto vars:     Size  Location     Type
  3156 ;;  prod            4   20[BANK0 ] struct .
  3157 ;;  grs             4   14[BANK0 ] unsigned long 
  3158 ;;  temp            2   24[BANK0 ] struct .
  3159 ;;  bexp            1   19[BANK0 ] unsigned char 
  3160 ;;  aexp            1   18[BANK0 ] unsigned char 
  3161 ;;  sign            1   13[BANK0 ] unsigned char 
  3162 ;; Return value:  Size  Location     Type
  3163 ;;                  4    0[BANK0 ] unsigned char 
  3164 ;; Registers used:
  3165 ;;		wreg, status,2, status,0, btemp+1, pclath, cstack
  3166 ;; Tracked objects:
  3167 ;;		On entry : 0/0
  3168 ;;		On exit  : 0/0
  3169 ;;		Unchanged: 0/0
  3170 ;; Data sizes:     COMMON   BANK0   BANK1   BANK2
  3171 ;;      Params:         0       8       0       0
  3172 ;;      Locals:         0      13       0       0
  3173 ;;      Temps:          0       5       0       0
  3174 ;;      Totals:         0      26       0       0
  3175 ;;Total ram usage:       26 bytes
  3176 ;; Hardware stack levels used: 1
  3177 ;; Hardware stack levels required when called: 1
  3178 ;; This function calls:
  3179 ;;		__Umul8_16
  3180 ;; This function is called by:
  3181 ;;		_TMR0_ISR
  3182 ;; This function uses a non-reentrant model
  3183 ;;
  3184                           
  3185  0000'                    ___flmul:	
  3186                           ;psect for function ___flmul
  3187                           
  3188  0000'                    i1l1906:	
  3189                           ;incstack = 0
  3190                           ; Regs used in ___flmul: [wreg+status,2+status,0+btemp+1+pclath+cstack]
  3191                           
  3192  0000' 1283               	bcf	3,5	;RP0=0, select bank0
  3193  0001' 1303               	bcf	3,6	;RP1=0, select bank0
  3194  0002' 0803'              	movf	___flmul@b+3,w
  3195  0003' 3980               	andlw	128
  3196  0004' 0088'              	movwf	??___flmul
  3197  0005' 0808'              	movf	??___flmul,w
  3198  0006' 008D'              	movwf	___flmul@sign
  3199  0007'                    i1l1908:
  3200  0007' 0803'              	movf	___flmul@b+3,w
  3201  0008' 0088'              	movwf	??___flmul
  3202  0009' 0708'              	addwf	??___flmul,w
  3203  000A' 0089'              	movwf	??___flmul+1
  3204  000B' 0809'              	movf	??___flmul+1,w
  3205  000C' 0093'              	movwf	___flmul@bexp
  3206  000D'                    i1l1910:
  3207  000D' 1F82'              	btfss	___flmul@b+2,7
  3208  000E' 2810'              	goto	u211_21
  3209  000F' 2811'              	goto	u211_20
  3210  0010'                    u211_21:
  3211  0010' 2812'              	goto	i1l1914
  3212  0011'                    u211_20:
  3213  0011'                    i1l1912:
  3214  0011' 1413'              	bsf	___flmul@bexp,0
  3215  0012'                    i1l1914:
  3216  0012' 0813'              	movf	___flmul@bexp,w
  3217  0013' 1903               	btfsc	3,2
  3218  0014' 2816'              	goto	u212_21
  3219  0015' 2817'              	goto	u212_20
  3220  0016'                    u212_21:
  3221  0016' 2826'              	goto	i1l1922
  3222  0017'                    u212_20:
  3223  0017'                    i1l1916:
  3224  0017' 0A13'              	incf	___flmul@bexp,w
  3225  0018' 1D03               	btfss	3,2
  3226  0019' 281B'              	goto	u213_21
  3227  001A' 281C'              	goto	u213_20
  3228  001B'                    u213_21:
  3229  001B' 2824'              	goto	i1l1920
  3230  001C'                    u213_20:
  3231  001C'                    i1l1918:
  3232  001C' 3000               	movlw	0
  3233  001D' 0083'              	movwf	___flmul@b+3
  3234  001E' 3000               	movlw	0
  3235  001F' 0082'              	movwf	___flmul@b+2
  3236  0020' 3000               	movlw	0
  3237  0021' 0081'              	movwf	___flmul@b+1
  3238  0022' 3000               	movlw	0
  3239  0023' 0080'              	movwf	___flmul@b
  3240  0024'                    i1l1920:
  3241  0024' 1782'              	bsf	___flmul@b+2,7
  3242  0025' 282E'              	goto	i1l1924
  3243  0026'                    i1l1922:
  3244  0026' 3000               	movlw	0
  3245  0027' 0083'              	movwf	___flmul@b+3
  3246  0028' 3000               	movlw	0
  3247  0029' 0082'              	movwf	___flmul@b+2
  3248  002A' 3000               	movlw	0
  3249  002B' 0081'              	movwf	___flmul@b+1
  3250  002C' 3000               	movlw	0
  3251  002D' 0080'              	movwf	___flmul@b
  3252  002E'                    i1l1924:
  3253  002E' 0807'              	movf	___flmul@a+3,w
  3254  002F' 3980               	andlw	128
  3255  0030' 0088'              	movwf	??___flmul
  3256  0031' 0808'              	movf	??___flmul,w
  3257  0032' 068D'              	xorwf	___flmul@sign,f
  3258  0033'                    i1l1926:
  3259  0033' 0807'              	movf	___flmul@a+3,w
  3260  0034' 0088'              	movwf	??___flmul
  3261  0035' 0708'              	addwf	??___flmul,w
  3262  0036' 0089'              	movwf	??___flmul+1
  3263  0037' 0809'              	movf	??___flmul+1,w
  3264  0038' 0092'              	movwf	___flmul@aexp
  3265  0039'                    i1l1928:
  3266  0039' 1F86'              	btfss	___flmul@a+2,7
  3267  003A' 283C'              	goto	u214_21
  3268  003B' 283D'              	goto	u214_20
  3269  003C'                    u214_21:
  3270  003C' 283E'              	goto	i1l1932
  3271  003D'                    u214_20:
  3272  003D'                    i1l1930:
  3273  003D' 1412'              	bsf	___flmul@aexp,0
  3274  003E'                    i1l1932:
  3275  003E' 0812'              	movf	___flmul@aexp,w
  3276  003F' 1903               	btfsc	3,2
  3277  0040' 2842'              	goto	u215_21
  3278  0041' 2843'              	goto	u215_20
  3279  0042'                    u215_21:
  3280  0042' 2852'              	goto	i1l1940
  3281  0043'                    u215_20:
  3282  0043'                    i1l1934:
  3283  0043' 0A12'              	incf	___flmul@aexp,w
  3284  0044' 1D03               	btfss	3,2
  3285  0045' 2847'              	goto	u216_21
  3286  0046' 2848'              	goto	u216_20
  3287  0047'                    u216_21:
  3288  0047' 2850'              	goto	i1l1938
  3289  0048'                    u216_20:
  3290  0048'                    i1l1936:
  3291  0048' 3000               	movlw	0
  3292  0049' 0087'              	movwf	___flmul@a+3
  3293  004A' 3000               	movlw	0
  3294  004B' 0086'              	movwf	___flmul@a+2
  3295  004C' 3000               	movlw	0
  3296  004D' 0085'              	movwf	___flmul@a+1
  3297  004E' 3000               	movlw	0
  3298  004F' 0084'              	movwf	___flmul@a
  3299  0050'                    i1l1938:
  3300  0050' 1786'              	bsf	___flmul@a+2,7
  3301  0051' 285A'              	goto	i1l1942
  3302  0052'                    i1l1940:
  3303  0052' 3000               	movlw	0
  3304  0053' 0087'              	movwf	___flmul@a+3
  3305  0054' 3000               	movlw	0
  3306  0055' 0086'              	movwf	___flmul@a+2
  3307  0056' 3000               	movlw	0
  3308  0057' 0085'              	movwf	___flmul@a+1
  3309  0058' 3000               	movlw	0
  3310  0059' 0084'              	movwf	___flmul@a
  3311  005A'                    i1l1942:
  3312  005A' 0812'              	movf	___flmul@aexp,w
  3313  005B' 1903               	btfsc	3,2
  3314  005C' 285E'              	goto	u217_21
  3315  005D' 285F'              	goto	u217_20
  3316  005E'                    u217_21:
  3317  005E' 2864'              	goto	i1l1946
  3318  005F'                    u217_20:
  3319  005F'                    i1l1944:
  3320  005F' 0813'              	movf	___flmul@bexp,w
  3321  0060' 1D03               	btfss	3,2
  3322  0061' 2863'              	goto	u218_21
  3323  0062' 2864'              	goto	u218_20
  3324  0063'                    u218_21:
  3325  0063' 286D'              	goto	i1l1950
  3326  0064'                    u218_20:
  3327  0064'                    i1l1946:
  3328  0064' 3000               	movlw	0
  3329  0065' 0083'              	movwf	?___flmul+3
  3330  0066' 3000               	movlw	0
  3331  0067' 0082'              	movwf	?___flmul+2
  3332  0068' 3000               	movlw	0
  3333  0069' 0081'              	movwf	?___flmul+1
  3334  006A' 3000               	movlw	0
  3335  006B' 0080'              	movwf	?___flmul
  3336  006C' 2B3C'              	goto	i1l645
  3337  006D'                    i1l1950:
  3338  006D' 0800'              	movf	___flmul@b,w
  3339  006E' 0088'              	movwf	??___flmul
  3340  006F' 0808'              	movf	??___flmul,w
  3341  0070' 0080'              	movwf	__Umul8_16@multiplicand
  3342  0071' 0806'              	movf	___flmul@a+2,w
  3343  0072' 2000'              	fcall	__Umul8_16
  3344  0073' 0801'              	movf	?__Umul8_16+1,w
  3345  0074' 1283               	bcf	3,5	;RP0=0, select bank0
  3346  0075' 1303               	bcf	3,6	;RP1=0, select bank0
  3347  0076' 0099'              	movwf	___flmul@temp+1
  3348  0077' 0800'              	movf	?__Umul8_16,w
  3349  0078' 0098'              	movwf	___flmul@temp
  3350  0079'                    i1l1952:
  3351  0079' 0818'              	movf	___flmul@temp,w
  3352  007A' 0088'              	movwf	??___flmul
  3353  007B' 0189'              	clrf	??___flmul+1
  3354  007C' 018A'              	clrf	??___flmul+2
  3355  007D' 018B'              	clrf	??___flmul+3
  3356  007E' 080B'              	movf	??___flmul+3,w
  3357  007F' 0091'              	movwf	___flmul@grs+3
  3358  0080' 080A'              	movf	??___flmul+2,w
  3359  0081' 0090'              	movwf	___flmul@grs+2
  3360  0082' 0809'              	movf	??___flmul+1,w
  3361  0083' 008F'              	movwf	___flmul@grs+1
  3362  0084' 0808'              	movf	??___flmul,w
  3363  0085' 008E'              	movwf	___flmul@grs
  3364  0086'                    i1l1954:
  3365  0086' 0819'              	movf	___flmul@temp+1,w
  3366  0087' 0088'              	movwf	??___flmul
  3367  0088' 0189'              	clrf	??___flmul+1
  3368  0089' 018A'              	clrf	??___flmul+2
  3369  008A' 018B'              	clrf	??___flmul+3
  3370  008B' 080B'              	movf	??___flmul+3,w
  3371  008C' 0097'              	movwf	___flmul@prod+3
  3372  008D' 080A'              	movf	??___flmul+2,w
  3373  008E' 0096'              	movwf	___flmul@prod+2
  3374  008F' 0809'              	movf	??___flmul+1,w
  3375  0090' 0095'              	movwf	___flmul@prod+1
  3376  0091' 0808'              	movf	??___flmul,w
  3377  0092' 0094'              	movwf	___flmul@prod
  3378  0093' 0801'              	movf	___flmul@b+1,w
  3379  0094' 0088'              	movwf	??___flmul
  3380  0095' 0808'              	movf	??___flmul,w
  3381  0096' 0080'              	movwf	__Umul8_16@multiplicand
  3382  0097' 0805'              	movf	___flmul@a+1,w
  3383  0098' 2000'              	fcall	__Umul8_16
  3384  0099' 0801'              	movf	?__Umul8_16+1,w
  3385  009A' 1283               	bcf	3,5	;RP0=0, select bank0
  3386  009B' 1303               	bcf	3,6	;RP1=0, select bank0
  3387  009C' 0099'              	movwf	___flmul@temp+1
  3388  009D' 0800'              	movf	?__Umul8_16,w
  3389  009E' 0098'              	movwf	___flmul@temp
  3390  009F'                    i1l1956:
  3391  009F' 0818'              	movf	___flmul@temp,w
  3392  00A0' 0088'              	movwf	??___flmul
  3393  00A1' 0189'              	clrf	??___flmul+1
  3394  00A2' 018A'              	clrf	??___flmul+2
  3395  00A3' 018B'              	clrf	??___flmul+3
  3396  00A4' 0808'              	movf	??___flmul,w
  3397  00A5' 078E'              	addwf	___flmul@grs,f
  3398  00A6' 0809'              	movf	??___flmul+1,w
  3399  00A7' 1103               	clrz
  3400  00A8' 1803               	skipnc
  3401  00A9' 3E01               	addlw	1
  3402  00AA' 1903               	skipnz
  3403  00AB' 28AD'              	goto	u219_21
  3404  00AC' 078F'              	addwf	___flmul@grs+1,f
  3405  00AD'                    u219_21:
  3406  00AD' 080A'              	movf	??___flmul+2,w
  3407  00AE' 1103               	clrz
  3408  00AF' 1803               	skipnc
  3409  00B0' 3E01               	addlw	1
  3410  00B1' 1903               	skipnz
  3411  00B2' 28B4'              	goto	u219_22
  3412  00B3' 0790'              	addwf	___flmul@grs+2,f
  3413  00B4'                    u219_22:
  3414  00B4' 080B'              	movf	??___flmul+3,w
  3415  00B5' 1103               	clrz
  3416  00B6' 1803               	skipnc
  3417  00B7' 3E01               	addlw	1
  3418  00B8' 1903               	skipnz
  3419  00B9' 28BB'              	goto	u219_23
  3420  00BA' 0791'              	addwf	___flmul@grs+3,f
  3421  00BB'                    u219_23:
  3422  00BB'                    i1l1958:
  3423  00BB' 0819'              	movf	___flmul@temp+1,w
  3424  00BC' 0088'              	movwf	??___flmul
  3425  00BD' 0189'              	clrf	??___flmul+1
  3426  00BE' 018A'              	clrf	??___flmul+2
  3427  00BF' 018B'              	clrf	??___flmul+3
  3428  00C0' 0808'              	movf	??___flmul,w
  3429  00C1' 0794'              	addwf	___flmul@prod,f
  3430  00C2' 0809'              	movf	??___flmul+1,w
  3431  00C3' 1103               	clrz
  3432  00C4' 1803               	skipnc
  3433  00C5' 3E01               	addlw	1
  3434  00C6' 1903               	skipnz
  3435  00C7' 28C9'              	goto	u220_21
  3436  00C8' 0795'              	addwf	___flmul@prod+1,f
  3437  00C9'                    u220_21:
  3438  00C9' 080A'              	movf	??___flmul+2,w
  3439  00CA' 1103               	clrz
  3440  00CB' 1803               	skipnc
  3441  00CC' 3E01               	addlw	1
  3442  00CD' 1903               	skipnz
  3443  00CE' 28D0'              	goto	u220_22
  3444  00CF' 0796'              	addwf	___flmul@prod+2,f
  3445  00D0'                    u220_22:
  3446  00D0' 080B'              	movf	??___flmul+3,w
  3447  00D1' 1103               	clrz
  3448  00D2' 1803               	skipnc
  3449  00D3' 3E01               	addlw	1
  3450  00D4' 1903               	skipnz
  3451  00D5' 28D7'              	goto	u220_23
  3452  00D6' 0797'              	addwf	___flmul@prod+3,f
  3453  00D7'                    u220_23:
  3454  00D7' 0802'              	movf	___flmul@b+2,w
  3455  00D8' 0088'              	movwf	??___flmul
  3456  00D9' 0808'              	movf	??___flmul,w
  3457  00DA' 0080'              	movwf	__Umul8_16@multiplicand
  3458  00DB' 0804'              	movf	___flmul@a,w
  3459  00DC' 2000'              	fcall	__Umul8_16
  3460  00DD' 0801'              	movf	?__Umul8_16+1,w
  3461  00DE' 1283               	bcf	3,5	;RP0=0, select bank0
  3462  00DF' 1303               	bcf	3,6	;RP1=0, select bank0
  3463  00E0' 0099'              	movwf	___flmul@temp+1
  3464  00E1' 0800'              	movf	?__Umul8_16,w
  3465  00E2' 0098'              	movwf	___flmul@temp
  3466  00E3'                    i1l1960:
  3467  00E3' 0818'              	movf	___flmul@temp,w
  3468  00E4' 0088'              	movwf	??___flmul
  3469  00E5' 0189'              	clrf	??___flmul+1
  3470  00E6' 018A'              	clrf	??___flmul+2
  3471  00E7' 018B'              	clrf	??___flmul+3
  3472  00E8' 0808'              	movf	??___flmul,w
  3473  00E9' 078E'              	addwf	___flmul@grs,f
  3474  00EA' 0809'              	movf	??___flmul+1,w
  3475  00EB' 1103               	clrz
  3476  00EC' 1803               	skipnc
  3477  00ED' 3E01               	addlw	1
  3478  00EE' 1903               	skipnz
  3479  00EF' 28F1'              	goto	u221_21
  3480  00F0' 078F'              	addwf	___flmul@grs+1,f
  3481  00F1'                    u221_21:
  3482  00F1' 080A'              	movf	??___flmul+2,w
  3483  00F2' 1103               	clrz
  3484  00F3' 1803               	skipnc
  3485  00F4' 3E01               	addlw	1
  3486  00F5' 1903               	skipnz
  3487  00F6' 28F8'              	goto	u221_22
  3488  00F7' 0790'              	addwf	___flmul@grs+2,f
  3489  00F8'                    u221_22:
  3490  00F8' 080B'              	movf	??___flmul+3,w
  3491  00F9' 1103               	clrz
  3492  00FA' 1803               	skipnc
  3493  00FB' 3E01               	addlw	1
  3494  00FC' 1903               	skipnz
  3495  00FD' 28FF'              	goto	u221_23
  3496  00FE' 0791'              	addwf	___flmul@grs+3,f
  3497  00FF'                    u221_23:
  3498  00FF'                    i1l1962:
  3499  00FF' 0819'              	movf	___flmul@temp+1,w
  3500  0100' 0088'              	movwf	??___flmul
  3501  0101' 0189'              	clrf	??___flmul+1
  3502  0102' 018A'              	clrf	??___flmul+2
  3503  0103' 018B'              	clrf	??___flmul+3
  3504  0104' 0808'              	movf	??___flmul,w
  3505  0105' 0794'              	addwf	___flmul@prod,f
  3506  0106' 0809'              	movf	??___flmul+1,w
  3507  0107' 1103               	clrz
  3508  0108' 1803               	skipnc
  3509  0109' 3E01               	addlw	1
  3510  010A' 1903               	skipnz
  3511  010B' 290D'              	goto	u222_21
  3512  010C' 0795'              	addwf	___flmul@prod+1,f
  3513  010D'                    u222_21:
  3514  010D' 080A'              	movf	??___flmul+2,w
  3515  010E' 1103               	clrz
  3516  010F' 1803               	skipnc
  3517  0110' 3E01               	addlw	1
  3518  0111' 1903               	skipnz
  3519  0112' 2914'              	goto	u222_22
  3520  0113' 0796'              	addwf	___flmul@prod+2,f
  3521  0114'                    u222_22:
  3522  0114' 080B'              	movf	??___flmul+3,w
  3523  0115' 1103               	clrz
  3524  0116' 1803               	skipnc
  3525  0117' 3E01               	addlw	1
  3526  0118' 1903               	skipnz
  3527  0119' 291B'              	goto	u222_23
  3528  011A' 0797'              	addwf	___flmul@prod+3,f
  3529  011B'                    u222_23:
  3530  011B'                    i1l1964:
  3531  011B' 3008               	movlw	8
  3532  011C' 0088'              	movwf	??___flmul
  3533  011D'                    u223_25:
  3534  011D' 1003               	clrc
  3535  011E' 0D8E'              	rlf	___flmul@grs,f
  3536  011F' 0D8F'              	rlf	___flmul@grs+1,f
  3537  0120' 0D90'              	rlf	___flmul@grs+2,f
  3538  0121' 0D91'              	rlf	___flmul@grs+3,f
  3539  0122' 0B88'              	decfsz	??___flmul,f
  3540  0123' 291D'              	goto	u223_25
  3541  0124'                    i1l1966:
  3542  0124' 0801'              	movf	___flmul@b+1,w
  3543  0125' 0088'              	movwf	??___flmul
  3544  0126' 0808'              	movf	??___flmul,w
  3545  0127' 0080'              	movwf	__Umul8_16@multiplicand
  3546  0128' 0804'              	movf	___flmul@a,w
  3547  0129' 2000'              	fcall	__Umul8_16
  3548  012A' 0801'              	movf	?__Umul8_16+1,w
  3549  012B' 1283               	bcf	3,5	;RP0=0, select bank0
  3550  012C' 1303               	bcf	3,6	;RP1=0, select bank0
  3551  012D' 0099'              	movwf	___flmul@temp+1
  3552  012E' 0800'              	movf	?__Umul8_16,w
  3553  012F' 0098'              	movwf	___flmul@temp
  3554  0130'                    i1l1968:
  3555  0130' 0818'              	movf	___flmul@temp,w
  3556  0131' 0088'              	movwf	??___flmul
  3557  0132' 0819'              	movf	___flmul@temp+1,w
  3558  0133' 0089'              	movwf	??___flmul+1
  3559  0134' 018A'              	clrf	??___flmul+2
  3560  0135' 018B'              	clrf	??___flmul+3
  3561  0136' 0808'              	movf	??___flmul,w
  3562  0137' 078E'              	addwf	___flmul@grs,f
  3563  0138' 0809'              	movf	??___flmul+1,w
  3564  0139' 1103               	clrz
  3565  013A' 1803               	skipnc
  3566  013B' 3E01               	addlw	1
  3567  013C' 1903               	skipnz
  3568  013D' 293F'              	goto	u224_21
  3569  013E' 078F'              	addwf	___flmul@grs+1,f
  3570  013F'                    u224_21:
  3571  013F' 080A'              	movf	??___flmul+2,w
  3572  0140' 1103               	clrz
  3573  0141' 1803               	skipnc
  3574  0142' 3E01               	addlw	1
  3575  0143' 1903               	skipnz
  3576  0144' 2946'              	goto	u224_22
  3577  0145' 0790'              	addwf	___flmul@grs+2,f
  3578  0146'                    u224_22:
  3579  0146' 080B'              	movf	??___flmul+3,w
  3580  0147' 1103               	clrz
  3581  0148' 1803               	skipnc
  3582  0149' 3E01               	addlw	1
  3583  014A' 1903               	skipnz
  3584  014B' 294D'              	goto	u224_23
  3585  014C' 0791'              	addwf	___flmul@grs+3,f
  3586  014D'                    u224_23:
  3587  014D'                    i1l1970:
  3588  014D' 0800'              	movf	___flmul@b,w
  3589  014E' 0088'              	movwf	??___flmul
  3590  014F' 0808'              	movf	??___flmul,w
  3591  0150' 0080'              	movwf	__Umul8_16@multiplicand
  3592  0151' 0805'              	movf	___flmul@a+1,w
  3593  0152' 2000'              	fcall	__Umul8_16
  3594  0153' 0801'              	movf	?__Umul8_16+1,w
  3595  0154' 1283               	bcf	3,5	;RP0=0, select bank0
  3596  0155' 1303               	bcf	3,6	;RP1=0, select bank0
  3597  0156' 0099'              	movwf	___flmul@temp+1
  3598  0157' 0800'              	movf	?__Umul8_16,w
  3599  0158' 0098'              	movwf	___flmul@temp
  3600  0159'                    i1l1972:
  3601  0159' 0818'              	movf	___flmul@temp,w
  3602  015A' 0088'              	movwf	??___flmul
  3603  015B' 0819'              	movf	___flmul@temp+1,w
  3604  015C' 0089'              	movwf	??___flmul+1
  3605  015D' 018A'              	clrf	??___flmul+2
  3606  015E' 018B'              	clrf	??___flmul+3
  3607  015F' 0808'              	movf	??___flmul,w
  3608  0160' 078E'              	addwf	___flmul@grs,f
  3609  0161' 0809'              	movf	??___flmul+1,w
  3610  0162' 1103               	clrz
  3611  0163' 1803               	skipnc
  3612  0164' 3E01               	addlw	1
  3613  0165' 1903               	skipnz
  3614  0166' 2968'              	goto	u225_21
  3615  0167' 078F'              	addwf	___flmul@grs+1,f
  3616  0168'                    u225_21:
  3617  0168' 080A'              	movf	??___flmul+2,w
  3618  0169' 1103               	clrz
  3619  016A' 1803               	skipnc
  3620  016B' 3E01               	addlw	1
  3621  016C' 1903               	skipnz
  3622  016D' 296F'              	goto	u225_22
  3623  016E' 0790'              	addwf	___flmul@grs+2,f
  3624  016F'                    u225_22:
  3625  016F' 080B'              	movf	??___flmul+3,w
  3626  0170' 1103               	clrz
  3627  0171' 1803               	skipnc
  3628  0172' 3E01               	addlw	1
  3629  0173' 1903               	skipnz
  3630  0174' 2976'              	goto	u225_23
  3631  0175' 0791'              	addwf	___flmul@grs+3,f
  3632  0176'                    u225_23:
  3633  0176'                    i1l1974:
  3634  0176' 3008               	movlw	8
  3635  0177' 0088'              	movwf	??___flmul
  3636  0178'                    u226_25:
  3637  0178' 1003               	clrc
  3638  0179' 0D8E'              	rlf	___flmul@grs,f
  3639  017A' 0D8F'              	rlf	___flmul@grs+1,f
  3640  017B' 0D90'              	rlf	___flmul@grs+2,f
  3641  017C' 0D91'              	rlf	___flmul@grs+3,f
  3642  017D' 0B88'              	decfsz	??___flmul,f
  3643  017E' 2978'              	goto	u226_25
  3644  017F' 0800'              	movf	___flmul@b,w
  3645  0180' 0088'              	movwf	??___flmul
  3646  0181' 0808'              	movf	??___flmul,w
  3647  0182' 0080'              	movwf	__Umul8_16@multiplicand
  3648  0183' 0804'              	movf	___flmul@a,w
  3649  0184' 2000'              	fcall	__Umul8_16
  3650  0185' 0801'              	movf	?__Umul8_16+1,w
  3651  0186' 1283               	bcf	3,5	;RP0=0, select bank0
  3652  0187' 1303               	bcf	3,6	;RP1=0, select bank0
  3653  0188' 0099'              	movwf	___flmul@temp+1
  3654  0189' 0800'              	movf	?__Umul8_16,w
  3655  018A' 0098'              	movwf	___flmul@temp
  3656  018B'                    i1l1976:
  3657  018B' 0818'              	movf	___flmul@temp,w
  3658  018C' 0088'              	movwf	??___flmul
  3659  018D' 0819'              	movf	___flmul@temp+1,w
  3660  018E' 0089'              	movwf	??___flmul+1
  3661  018F' 018A'              	clrf	??___flmul+2
  3662  0190' 018B'              	clrf	??___flmul+3
  3663  0191' 0808'              	movf	??___flmul,w
  3664  0192' 078E'              	addwf	___flmul@grs,f
  3665  0193' 0809'              	movf	??___flmul+1,w
  3666  0194' 1103               	clrz
  3667  0195' 1803               	skipnc
  3668  0196' 3E01               	addlw	1
  3669  0197' 1903               	skipnz
  3670  0198' 299A'              	goto	u227_21
  3671  0199' 078F'              	addwf	___flmul@grs+1,f
  3672  019A'                    u227_21:
  3673  019A' 080A'              	movf	??___flmul+2,w
  3674  019B' 1103               	clrz
  3675  019C' 1803               	skipnc
  3676  019D' 3E01               	addlw	1
  3677  019E' 1903               	skipnz
  3678  019F' 29A1'              	goto	u227_22
  3679  01A0' 0790'              	addwf	___flmul@grs+2,f
  3680  01A1'                    u227_22:
  3681  01A1' 080B'              	movf	??___flmul+3,w
  3682  01A2' 1103               	clrz
  3683  01A3' 1803               	skipnc
  3684  01A4' 3E01               	addlw	1
  3685  01A5' 1903               	skipnz
  3686  01A6' 29A8'              	goto	u227_23
  3687  01A7' 0791'              	addwf	___flmul@grs+3,f
  3688  01A8'                    u227_23:
  3689  01A8'                    i1l1978:
  3690  01A8' 0801'              	movf	___flmul@b+1,w
  3691  01A9' 0088'              	movwf	??___flmul
  3692  01AA' 0808'              	movf	??___flmul,w
  3693  01AB' 0080'              	movwf	__Umul8_16@multiplicand
  3694  01AC' 0806'              	movf	___flmul@a+2,w
  3695  01AD' 2000'              	fcall	__Umul8_16
  3696  01AE' 0801'              	movf	?__Umul8_16+1,w
  3697  01AF' 1283               	bcf	3,5	;RP0=0, select bank0
  3698  01B0' 1303               	bcf	3,6	;RP1=0, select bank0
  3699  01B1' 0099'              	movwf	___flmul@temp+1
  3700  01B2' 0800'              	movf	?__Umul8_16,w
  3701  01B3' 0098'              	movwf	___flmul@temp
  3702  01B4' 0818'              	movf	___flmul@temp,w
  3703  01B5' 0088'              	movwf	??___flmul
  3704  01B6' 0819'              	movf	___flmul@temp+1,w
  3705  01B7' 0089'              	movwf	??___flmul+1
  3706  01B8' 018A'              	clrf	??___flmul+2
  3707  01B9' 018B'              	clrf	??___flmul+3
  3708  01BA' 0808'              	movf	??___flmul,w
  3709  01BB' 0794'              	addwf	___flmul@prod,f
  3710  01BC' 0809'              	movf	??___flmul+1,w
  3711  01BD' 1103               	clrz
  3712  01BE' 1803               	skipnc
  3713  01BF' 3E01               	addlw	1
  3714  01C0' 1903               	skipnz
  3715  01C1' 29C3'              	goto	u228_21
  3716  01C2' 0795'              	addwf	___flmul@prod+1,f
  3717  01C3'                    u228_21:
  3718  01C3' 080A'              	movf	??___flmul+2,w
  3719  01C4' 1103               	clrz
  3720  01C5' 1803               	skipnc
  3721  01C6' 3E01               	addlw	1
  3722  01C7' 1903               	skipnz
  3723  01C8' 29CA'              	goto	u228_22
  3724  01C9' 0796'              	addwf	___flmul@prod+2,f
  3725  01CA'                    u228_22:
  3726  01CA' 080B'              	movf	??___flmul+3,w
  3727  01CB' 1103               	clrz
  3728  01CC' 1803               	skipnc
  3729  01CD' 3E01               	addlw	1
  3730  01CE' 1903               	skipnz
  3731  01CF' 29D1'              	goto	u228_23
  3732  01D0' 0797'              	addwf	___flmul@prod+3,f
  3733  01D1'                    u228_23:
  3734  01D1'                    i1l1980:
  3735  01D1' 0802'              	movf	___flmul@b+2,w
  3736  01D2' 0088'              	movwf	??___flmul
  3737  01D3' 0808'              	movf	??___flmul,w
  3738  01D4' 0080'              	movwf	__Umul8_16@multiplicand
  3739  01D5' 0805'              	movf	___flmul@a+1,w
  3740  01D6' 2000'              	fcall	__Umul8_16
  3741  01D7' 0801'              	movf	?__Umul8_16+1,w
  3742  01D8' 1283               	bcf	3,5	;RP0=0, select bank0
  3743  01D9' 1303               	bcf	3,6	;RP1=0, select bank0
  3744  01DA' 0099'              	movwf	___flmul@temp+1
  3745  01DB' 0800'              	movf	?__Umul8_16,w
  3746  01DC' 0098'              	movwf	___flmul@temp
  3747  01DD'                    i1l1982:
  3748  01DD' 0818'              	movf	___flmul@temp,w
  3749  01DE' 0088'              	movwf	??___flmul
  3750  01DF' 0819'              	movf	___flmul@temp+1,w
  3751  01E0' 0089'              	movwf	??___flmul+1
  3752  01E1' 018A'              	clrf	??___flmul+2
  3753  01E2' 018B'              	clrf	??___flmul+3
  3754  01E3' 0808'              	movf	??___flmul,w
  3755  01E4' 0794'              	addwf	___flmul@prod,f
  3756  01E5' 0809'              	movf	??___flmul+1,w
  3757  01E6' 1103               	clrz
  3758  01E7' 1803               	skipnc
  3759  01E8' 3E01               	addlw	1
  3760  01E9' 1903               	skipnz
  3761  01EA' 29EC'              	goto	u229_21
  3762  01EB' 0795'              	addwf	___flmul@prod+1,f
  3763  01EC'                    u229_21:
  3764  01EC' 080A'              	movf	??___flmul+2,w
  3765  01ED' 1103               	clrz
  3766  01EE' 1803               	skipnc
  3767  01EF' 3E01               	addlw	1
  3768  01F0' 1903               	skipnz
  3769  01F1' 29F3'              	goto	u229_22
  3770  01F2' 0796'              	addwf	___flmul@prod+2,f
  3771  01F3'                    u229_22:
  3772  01F3' 080B'              	movf	??___flmul+3,w
  3773  01F4' 1103               	clrz
  3774  01F5' 1803               	skipnc
  3775  01F6' 3E01               	addlw	1
  3776  01F7' 1903               	skipnz
  3777  01F8' 29FA'              	goto	u229_23
  3778  01F9' 0797'              	addwf	___flmul@prod+3,f
  3779  01FA'                    u229_23:
  3780  01FA' 0802'              	movf	___flmul@b+2,w
  3781  01FB' 0088'              	movwf	??___flmul
  3782  01FC' 0808'              	movf	??___flmul,w
  3783  01FD' 0080'              	movwf	__Umul8_16@multiplicand
  3784  01FE' 0806'              	movf	___flmul@a+2,w
  3785  01FF' 2000'              	fcall	__Umul8_16
  3786  0200' 0801'              	movf	?__Umul8_16+1,w
  3787  0201' 1283               	bcf	3,5	;RP0=0, select bank0
  3788  0202' 1303               	bcf	3,6	;RP1=0, select bank0
  3789  0203' 0099'              	movwf	___flmul@temp+1
  3790  0204' 0800'              	movf	?__Umul8_16,w
  3791  0205' 0098'              	movwf	___flmul@temp
  3792  0206'                    i1l1984:
  3793  0206' 0818'              	movf	___flmul@temp,w
  3794  0207' 0088'              	movwf	??___flmul
  3795  0208' 0819'              	movf	___flmul@temp+1,w
  3796  0209' 0089'              	movwf	??___flmul+1
  3797  020A' 018A'              	clrf	??___flmul+2
  3798  020B' 018B'              	clrf	??___flmul+3
  3799  020C' 3008               	movlw	8
  3800  020D'                    u230_25:
  3801  020D' 1003               	clrc
  3802  020E' 0D88'              	rlf	??___flmul,f
  3803  020F' 0D89'              	rlf	??___flmul+1,f
  3804  0210' 0D8A'              	rlf	??___flmul+2,f
  3805  0211' 0D8B'              	rlf	??___flmul+3,f
  3806  0212'                    u230_20:
  3807  0212' 3EFF               	addlw	-1
  3808  0213' 1D03               	skipz
  3809  0214' 2A0D'              	goto	u230_25
  3810  0215' 0808'              	movf	??___flmul,w
  3811  0216' 0794'              	addwf	___flmul@prod,f
  3812  0217' 0809'              	movf	??___flmul+1,w
  3813  0218' 1103               	clrz
  3814  0219' 1803               	skipnc
  3815  021A' 3E01               	addlw	1
  3816  021B' 1903               	skipnz
  3817  021C' 2A1E'              	goto	u231_21
  3818  021D' 0795'              	addwf	___flmul@prod+1,f
  3819  021E'                    u231_21:
  3820  021E' 080A'              	movf	??___flmul+2,w
  3821  021F' 1103               	clrz
  3822  0220' 1803               	skipnc
  3823  0221' 3E01               	addlw	1
  3824  0222' 1903               	skipnz
  3825  0223' 2A25'              	goto	u231_22
  3826  0224' 0796'              	addwf	___flmul@prod+2,f
  3827  0225'                    u231_22:
  3828  0225' 080B'              	movf	??___flmul+3,w
  3829  0226' 1103               	clrz
  3830  0227' 1803               	skipnc
  3831  0228' 3E01               	addlw	1
  3832  0229' 1903               	skipnz
  3833  022A' 2A2C'              	goto	u231_23
  3834  022B' 0797'              	addwf	___flmul@prod+3,f
  3835  022C'                    u231_23:
  3836  022C'                    i1l1986:
  3837  022C' 080E'              	movf	___flmul@grs,w
  3838  022D' 0088'              	movwf	??___flmul
  3839  022E' 080F'              	movf	___flmul@grs+1,w
  3840  022F' 0089'              	movwf	??___flmul+1
  3841  0230' 0810'              	movf	___flmul@grs+2,w
  3842  0231' 008A'              	movwf	??___flmul+2
  3843  0232' 0811'              	movf	___flmul@grs+3,w
  3844  0233' 008B'              	movwf	??___flmul+3
  3845  0234' 3018               	movlw	24
  3846  0235'                    u232_25:
  3847  0235' 1003               	clrc
  3848  0236' 0C8B'              	rrf	??___flmul+3,f
  3849  0237' 0C8A'              	rrf	??___flmul+2,f
  3850  0238' 0C89'              	rrf	??___flmul+1,f
  3851  0239' 0C88'              	rrf	??___flmul,f
  3852  023A'                    u232_20:
  3853  023A' 3EFF               	addlw	-1
  3854  023B' 1D03               	skipz
  3855  023C' 2A35'              	goto	u232_25
  3856  023D' 0808'              	movf	??___flmul,w
  3857  023E' 0794'              	addwf	___flmul@prod,f
  3858  023F' 0809'              	movf	??___flmul+1,w
  3859  0240' 1103               	clrz
  3860  0241' 1803               	skipnc
  3861  0242' 3E01               	addlw	1
  3862  0243' 1903               	skipnz
  3863  0244' 2A46'              	goto	u233_21
  3864  0245' 0795'              	addwf	___flmul@prod+1,f
  3865  0246'                    u233_21:
  3866  0246' 080A'              	movf	??___flmul+2,w
  3867  0247' 1103               	clrz
  3868  0248' 1803               	skipnc
  3869  0249' 3E01               	addlw	1
  3870  024A' 1903               	skipnz
  3871  024B' 2A4D'              	goto	u233_22
  3872  024C' 0796'              	addwf	___flmul@prod+2,f
  3873  024D'                    u233_22:
  3874  024D' 080B'              	movf	??___flmul+3,w
  3875  024E' 1103               	clrz
  3876  024F' 1803               	skipnc
  3877  0250' 3E01               	addlw	1
  3878  0251' 1903               	skipnz
  3879  0252' 2A54'              	goto	u233_23
  3880  0253' 0797'              	addwf	___flmul@prod+3,f
  3881  0254'                    u233_23:
  3882  0254'                    i1l1988:
  3883  0254' 3008               	movlw	8
  3884  0255' 0088'              	movwf	??___flmul
  3885  0256'                    u234_25:
  3886  0256' 1003               	clrc
  3887  0257' 0D8E'              	rlf	___flmul@grs,f
  3888  0258' 0D8F'              	rlf	___flmul@grs+1,f
  3889  0259' 0D90'              	rlf	___flmul@grs+2,f
  3890  025A' 0D91'              	rlf	___flmul@grs+3,f
  3891  025B' 0B88'              	decfsz	??___flmul,f
  3892  025C' 2A56'              	goto	u234_25
  3893  025D'                    i1l1990:
  3894  025D' 0813'              	movf	___flmul@bexp,w
  3895  025E' 0712'              	addwf	___flmul@aexp,w
  3896  025F' 0088'              	movwf	??___flmul
  3897  0260' 0189'              	clrf	??___flmul+1
  3898  0261' 0D89'              	rlf	??___flmul+1,f
  3899  0262' 0808'              	movf	??___flmul,w
  3900  0263' 3E82               	addlw	130
  3901  0264' 0098'              	movwf	___flmul@temp
  3902  0265' 0809'              	movf	??___flmul+1,w
  3903  0266' 1803               	skipnc
  3904  0267' 3E01               	addlw	1
  3905  0268' 3EFF               	addlw	255
  3906  0269' 0099'              	movwf	___flmul@temp+1
  3907  026A' 2A88'              	goto	i1l2002
  3908  026B'                    i1l1992:
  3909  026B' 3001               	movlw	1
  3910  026C' 0088'              	movwf	??___flmul
  3911  026D'                    u235_25:
  3912  026D' 1003               	clrc
  3913  026E' 0D94'              	rlf	___flmul@prod,f
  3914  026F' 0D95'              	rlf	___flmul@prod+1,f
  3915  0270' 0D96'              	rlf	___flmul@prod+2,f
  3916  0271' 0D97'              	rlf	___flmul@prod+3,f
  3917  0272' 0B88'              	decfsz	??___flmul,f
  3918  0273' 2A6D'              	goto	u235_25
  3919  0274'                    i1l1994:
  3920  0274' 1F91'              	btfss	___flmul@grs+3,7
  3921  0275' 2A77'              	goto	u236_21
  3922  0276' 2A78'              	goto	u236_20
  3923  0277'                    u236_21:
  3924  0277' 2A79'              	goto	i1l1998
  3925  0278'                    u236_20:
  3926  0278'                    i1l1996:
  3927  0278' 1414'              	bsf	___flmul@prod,0
  3928  0279'                    i1l1998:
  3929  0279' 3001               	movlw	1
  3930  027A' 0088'              	movwf	??___flmul
  3931  027B'                    u237_25:
  3932  027B' 1003               	clrc
  3933  027C' 0D8E'              	rlf	___flmul@grs,f
  3934  027D' 0D8F'              	rlf	___flmul@grs+1,f
  3935  027E' 0D90'              	rlf	___flmul@grs+2,f
  3936  027F' 0D91'              	rlf	___flmul@grs+3,f
  3937  0280' 0B88'              	decfsz	??___flmul,f
  3938  0281' 2A7B'              	goto	u237_25
  3939  0282'                    i1l2000:
  3940  0282' 30FF               	movlw	255
  3941  0283' 0798'              	addwf	___flmul@temp,f
  3942  0284' 1803               	skipnc
  3943  0285' 0A99'              	incf	___flmul@temp+1,f
  3944  0286' 30FF               	movlw	255
  3945  0287' 0799'              	addwf	___flmul@temp+1,f
  3946  0288'                    i1l2002:
  3947  0288' 1F96'              	btfss	___flmul@prod+2,7
  3948  0289' 2A8B'              	goto	u238_21
  3949  028A' 2A8C'              	goto	u238_20
  3950  028B'                    u238_21:
  3951  028B' 2A6B'              	goto	i1l1992
  3952  028C'                    u238_20:
  3953  028C'                    i1l2004:
  3954  028C' 0192'              	clrf	___flmul@aexp
  3955  028D'                    i1l2006:
  3956  028D' 1F91'              	btfss	___flmul@grs+3,7
  3957  028E' 2A90'              	goto	u239_21
  3958  028F' 2A91'              	goto	u239_20
  3959  0290'                    u239_21:
  3960  0290' 2AAD'              	goto	i1l2014
  3961  0291'                    u239_20:
  3962  0291'                    i1l2008:
  3963  0291' 30FF               	movlw	255
  3964  0292' 050E'              	andwf	___flmul@grs,w
  3965  0293' 0088'              	movwf	??___flmul
  3966  0294' 30FF               	movlw	255
  3967  0295' 050F'              	andwf	___flmul@grs+1,w
  3968  0296' 0089'              	movwf	??___flmul+1
  3969  0297' 30FF               	movlw	255
  3970  0298' 0510'              	andwf	___flmul@grs+2,w
  3971  0299' 008A'              	movwf	??___flmul+2
  3972  029A' 307F               	movlw	127
  3973  029B' 0511'              	andwf	___flmul@grs+3,w
  3974  029C' 008B'              	movwf	??___flmul+3
  3975  029D' 080B'              	movf	??___flmul+3,w
  3976  029E' 040A'              	iorwf	??___flmul+2,w
  3977  029F' 0409'              	iorwf	??___flmul+1,w
  3978  02A0' 0408'              	iorwf	??___flmul,w
  3979  02A1' 1903               	skipnz
  3980  02A2' 2AA4'              	goto	u240_21
  3981  02A3' 2AA5'              	goto	u240_20
  3982  02A4'                    u240_21:
  3983  02A4' 2AA8'              	goto	i1l651
  3984  02A5'                    u240_20:
  3985  02A5'                    i1l2010:
  3986  02A5' 0192'              	clrf	___flmul@aexp
  3987  02A6' 0A92'              	incf	___flmul@aexp,f
  3988  02A7' 2AAD'              	goto	i1l2014
  3989  02A8'                    i1l651:
  3990  02A8' 1C14'              	btfss	___flmul@prod,0
  3991  02A9' 2AAB'              	goto	u241_21
  3992  02AA' 2AAC'              	goto	u241_20
  3993  02AB'                    u241_21:
  3994  02AB' 2AAD'              	goto	i1l2014
  3995  02AC'                    u241_20:
  3996  02AC' 2AA5'              	goto	i1l2010
  3997  02AD'                    i1l2014:
  3998  02AD' 0812'              	movf	___flmul@aexp,w
  3999  02AE' 1903               	btfsc	3,2
  4000  02AF' 2AB1'              	goto	u242_21
  4001  02B0' 2AB2'              	goto	u242_20
  4002  02B1'                    u242_21:
  4003  02B1' 2AE3'              	goto	i1l2024
  4004  02B2'                    u242_20:
  4005  02B2'                    i1l2016:
  4006  02B2' 3001               	movlw	1
  4007  02B3' 0794'              	addwf	___flmul@prod,f
  4008  02B4' 3000               	movlw	0
  4009  02B5' 1803               	skipnc
  4010  02B6' 3001               	movlw	1
  4011  02B7' 0795'              	addwf	___flmul@prod+1,f
  4012  02B8' 3000               	movlw	0
  4013  02B9' 1803               	skipnc
  4014  02BA' 3001               	movlw	1
  4015  02BB' 0796'              	addwf	___flmul@prod+2,f
  4016  02BC' 3000               	movlw	0
  4017  02BD' 1803               	skipnc
  4018  02BE' 3001               	movlw	1
  4019  02BF' 0797'              	addwf	___flmul@prod+3,f
  4020  02C0'                    i1l2018:
  4021  02C0' 1C17'              	btfss	___flmul@prod+3,0
  4022  02C1' 2AC3'              	goto	u243_21
  4023  02C2' 2AC4'              	goto	u243_20
  4024  02C3'                    u243_21:
  4025  02C3' 2AE3'              	goto	i1l2024
  4026  02C4'                    u243_20:
  4027  02C4'                    i1l2020:
  4028  02C4' 0814'              	movf	___flmul@prod,w
  4029  02C5' 0088'              	movwf	??___flmul
  4030  02C6' 0815'              	movf	___flmul@prod+1,w
  4031  02C7' 0089'              	movwf	??___flmul+1
  4032  02C8' 0816'              	movf	___flmul@prod+2,w
  4033  02C9' 008A'              	movwf	??___flmul+2
  4034  02CA' 0817'              	movf	___flmul@prod+3,w
  4035  02CB' 008B'              	movwf	??___flmul+3
  4036  02CC' 3001               	movlw	1
  4037  02CD' 008C'              	movwf	??___flmul+4
  4038  02CE'                    u244_25:
  4039  02CE' 0D0B'              	rlf	??___flmul+3,w
  4040  02CF' 0C8B'              	rrf	??___flmul+3,f
  4041  02D0' 0C8A'              	rrf	??___flmul+2,f
  4042  02D1' 0C89'              	rrf	??___flmul+1,f
  4043  02D2' 0C88'              	rrf	??___flmul,f
  4044  02D3'                    u244_20:
  4045  02D3' 0B8C'              	decfsz	??___flmul+4,f
  4046  02D4' 2ACE'              	goto	u244_25
  4047  02D5' 080B'              	movf	??___flmul+3,w
  4048  02D6' 0097'              	movwf	___flmul@prod+3
  4049  02D7' 080A'              	movf	??___flmul+2,w
  4050  02D8' 0096'              	movwf	___flmul@prod+2
  4051  02D9' 0809'              	movf	??___flmul+1,w
  4052  02DA' 0095'              	movwf	___flmul@prod+1
  4053  02DB' 0808'              	movf	??___flmul,w
  4054  02DC' 0094'              	movwf	___flmul@prod
  4055  02DD'                    i1l2022:
  4056  02DD' 3001               	movlw	1
  4057  02DE' 0798'              	addwf	___flmul@temp,f
  4058  02DF' 1803               	skipnc
  4059  02E0' 0A99'              	incf	___flmul@temp+1,f
  4060  02E1' 3000               	movlw	0
  4061  02E2' 0799'              	addwf	___flmul@temp+1,f
  4062  02E3'                    i1l2024:
  4063  02E3' 0819'              	movf	___flmul@temp+1,w
  4064  02E4' 3A80               	xorlw	128
  4065  02E5' 00FF               	movwf	btemp+1
  4066  02E6' 3080               	movlw	128
  4067  02E7' 027F               	subwf	btemp+1,w
  4068  02E8' 1D03               	skipz
  4069  02E9' 2AEC'              	goto	u245_25
  4070  02EA' 30FF               	movlw	255
  4071  02EB' 0218'              	subwf	___flmul@temp,w
  4072  02EC'                    u245_25:
  4073  02EC' 1C03               	skipc
  4074  02ED' 2AEF'              	goto	u245_21
  4075  02EE' 2AF0'              	goto	u245_20
  4076  02EF'                    u245_21:
  4077  02EF' 2AFB'              	goto	i1l2028
  4078  02F0'                    u245_20:
  4079  02F0'                    i1l2026:
  4080  02F0' 307F               	movlw	127
  4081  02F1' 1283               	bcf	3,5	;RP0=0, select bank0
  4082  02F2' 1303               	bcf	3,6	;RP1=0, select bank0
  4083  02F3' 0097'              	movwf	___flmul@prod+3
  4084  02F4' 3080               	movlw	128
  4085  02F5' 0096'              	movwf	___flmul@prod+2
  4086  02F6' 3000               	movlw	0
  4087  02F7' 0095'              	movwf	___flmul@prod+1
  4088  02F8' 3000               	movlw	0
  4089  02F9' 0094'              	movwf	___flmul@prod
  4090  02FA' 2B30'              	goto	i1l657
  4091  02FB'                    i1l2028:
  4092  02FB' 1283               	bcf	3,5	;RP0=0, select bank0
  4093  02FC' 1303               	bcf	3,6	;RP1=0, select bank0
  4094  02FD' 0819'              	movf	___flmul@temp+1,w
  4095  02FE' 3A80               	xorlw	128
  4096  02FF' 00FF               	movwf	btemp+1
  4097  0300' 3080               	movlw	128
  4098  0301' 027F               	subwf	btemp+1,w
  4099  0302' 1D03               	skipz
  4100  0303' 2B06'              	goto	u246_25
  4101  0304' 3001               	movlw	1
  4102  0305' 0218'              	subwf	___flmul@temp,w
  4103  0306'                    u246_25:
  4104  0306' 1803               	skipnc
  4105  0307' 2B09'              	goto	u246_21
  4106  0308' 2B0A'              	goto	u246_20
  4107  0309'                    u246_21:
  4108  0309' 2B16'              	goto	i1l2034
  4109  030A'                    u246_20:
  4110  030A'                    i1l2030:
  4111  030A' 3000               	movlw	0
  4112  030B' 1283               	bcf	3,5	;RP0=0, select bank0
  4113  030C' 1303               	bcf	3,6	;RP1=0, select bank0
  4114  030D' 0097'              	movwf	___flmul@prod+3
  4115  030E' 3000               	movlw	0
  4116  030F' 0096'              	movwf	___flmul@prod+2
  4117  0310' 3000               	movlw	0
  4118  0311' 0095'              	movwf	___flmul@prod+1
  4119  0312' 3000               	movlw	0
  4120  0313' 0094'              	movwf	___flmul@prod
  4121  0314'                    i1l2032:
  4122  0314' 018D'              	clrf	___flmul@sign
  4123  0315' 2B30'              	goto	i1l657
  4124  0316'                    i1l2034:
  4125  0316' 1283               	bcf	3,5	;RP0=0, select bank0
  4126  0317' 1303               	bcf	3,6	;RP1=0, select bank0
  4127  0318' 0818'              	movf	___flmul@temp,w
  4128  0319' 0088'              	movwf	??___flmul
  4129  031A' 0808'              	movf	??___flmul,w
  4130  031B' 0093'              	movwf	___flmul@bexp
  4131  031C' 30FF               	movlw	255
  4132  031D' 0594'              	andwf	___flmul@prod,f
  4133  031E' 30FF               	movlw	255
  4134  031F' 0595'              	andwf	___flmul@prod+1,f
  4135  0320' 307F               	movlw	127
  4136  0321' 0596'              	andwf	___flmul@prod+2,f
  4137  0322' 3000               	movlw	0
  4138  0323' 0597'              	andwf	___flmul@prod+3,f
  4139  0324'                    i1l2036:
  4140  0324' 1C13'              	btfss	___flmul@bexp,0
  4141  0325' 2B27'              	goto	u247_21
  4142  0326' 2B28'              	goto	u247_20
  4143  0327'                    u247_21:
  4144  0327' 2B29'              	goto	i1l2040
  4145  0328'                    u247_20:
  4146  0328'                    i1l2038:
  4147  0328' 1796'              	bsf	___flmul@prod+2,7
  4148  0329'                    i1l2040:
  4149  0329' 0813'              	movf	___flmul@bexp,w
  4150  032A' 0088'              	movwf	??___flmul
  4151  032B' 1003               	clrc
  4152  032C' 0C08'              	rrf	??___flmul,w
  4153  032D' 0089'              	movwf	??___flmul+1
  4154  032E' 0809'              	movf	??___flmul+1,w
  4155  032F' 0097'              	movwf	___flmul@prod+3
  4156  0330'                    i1l657:
  4157  0330' 080D'              	movf	___flmul@sign,w
  4158  0331' 0088'              	movwf	??___flmul
  4159  0332' 0808'              	movf	??___flmul,w
  4160  0333' 0497'              	iorwf	___flmul@prod+3,f
  4161  0334'                    i1l2042:
  4162  0334' 0817'              	movf	___flmul@prod+3,w
  4163  0335' 0083'              	movwf	?___flmul+3
  4164  0336' 0816'              	movf	___flmul@prod+2,w
  4165  0337' 0082'              	movwf	?___flmul+2
  4166  0338' 0815'              	movf	___flmul@prod+1,w
  4167  0339' 0081'              	movwf	?___flmul+1
  4168  033A' 0814'              	movf	___flmul@prod,w
  4169  033B' 0080'              	movwf	?___flmul
  4170  033C'                    i1l645:
  4171  033C' 0008               	return
  4172  033D'                    __end_of___flmul:
  4173                           
  4174                           	psect	text16
  4175  0000'                    __ptext16:	
  4176 ;; *************** function __Umul8_16 *****************
  4177 ;; Defined at:
  4178 ;;		line 4 in file "C:\Program Files\Microchip\xc8\v2.36\pic\sources\c90\common\Umul8_16.c"
  4179 ;; Parameters:    Size  Location     Type
  4180 ;;  multiplier      1    wreg     unsigned char 
  4181 ;;  multiplicand    1    0[COMMON] unsigned char 
  4182 ;; Auto vars:     Size  Location     Type
  4183 ;;  multiplier      1    8[COMMON] unsigned char 
  4184 ;;  word_mpld       2    6[COMMON] unsigned int 
  4185 ;;  product         2    4[COMMON] unsigned int 
  4186 ;; Return value:  Size  Location     Type
  4187 ;;                  2    0[COMMON] unsigned int 
  4188 ;; Registers used:
  4189 ;;		wreg, status,2, status,0
  4190 ;; Tracked objects:
  4191 ;;		On entry : 0/0
  4192 ;;		On exit  : 0/0
  4193 ;;		Unchanged: 0/0
  4194 ;; Data sizes:     COMMON   BANK0   BANK1   BANK2
  4195 ;;      Params:         2       0       0       0
  4196 ;;      Locals:         5       0       0       0
  4197 ;;      Temps:          2       0       0       0
  4198 ;;      Totals:         9       0       0       0
  4199 ;;Total ram usage:        9 bytes
  4200 ;; Hardware stack levels used: 1
  4201 ;; This function calls:
  4202 ;;		Nothing
  4203 ;; This function is called by:
  4204 ;;		___flmul
  4205 ;; This function uses a non-reentrant model
  4206 ;;
  4207                           
  4208  0000'                    __Umul8_16:	
  4209                           ;psect for function __Umul8_16
  4210                           
  4211                           
  4212                           ;incstack = 0
  4213                           ; Regs used in __Umul8_16: [wreg+status,2+status,0]
  4214                           ;__Umul8_16@multiplier stored from wreg
  4215  0000' 0088'              	movwf	__Umul8_16@multiplier
  4216  0001'                    i1l1632:
  4217  0001' 0184'              	clrf	__Umul8_16@product
  4218  0002' 0185'              	clrf	__Umul8_16@product+1
  4219  0003'                    i1l1634:
  4220  0003' 0800'              	movf	__Umul8_16@multiplicand,w
  4221  0004' 0082'              	movwf	??__Umul8_16
  4222  0005' 0183'              	clrf	??__Umul8_16+1
  4223  0006' 0802'              	movf	??__Umul8_16,w
  4224  0007' 0086'              	movwf	__Umul8_16@word_mpld
  4225  0008' 0803'              	movf	??__Umul8_16+1,w
  4226  0009' 0087'              	movwf	__Umul8_16@word_mpld+1
  4227  000A'                    i1l1636:
  4228  000A' 1C08'              	btfss	__Umul8_16@multiplier,0
  4229  000B' 280D'              	goto	u165_21
  4230  000C' 280E'              	goto	u165_20
  4231  000D'                    u165_21:
  4232  000D' 2814'              	goto	i1l664
  4233  000E'                    u165_20:
  4234  000E'                    i1l1638:
  4235  000E' 0806'              	movf	__Umul8_16@word_mpld,w
  4236  000F' 0784'              	addwf	__Umul8_16@product,f
  4237  0010' 1803               	skipnc
  4238  0011' 0A85'              	incf	__Umul8_16@product+1,f
  4239  0012' 0807'              	movf	__Umul8_16@word_mpld+1,w
  4240  0013' 0785'              	addwf	__Umul8_16@product+1,f
  4241  0014'                    i1l664:
  4242  0014' 3001               	movlw	1
  4243  0015'                    u166_25:
  4244  0015' 1003               	clrc
  4245  0016' 0D86'              	rlf	__Umul8_16@word_mpld,f
  4246  0017' 0D87'              	rlf	__Umul8_16@word_mpld+1,f
  4247  0018' 3EFF               	addlw	-1
  4248  0019' 1D03               	skipz
  4249  001A' 2815'              	goto	u166_25
  4250  001B' 1003               	clrc
  4251  001C' 0C88'              	rrf	__Umul8_16@multiplier,f
  4252  001D'                    i1l1640:
  4253  001D' 0808'              	movf	__Umul8_16@multiplier,w
  4254  001E' 1D03               	btfss	3,2
  4255  001F' 2821'              	goto	u167_21
  4256  0020' 2822'              	goto	u167_20
  4257  0021'                    u167_21:
  4258  0021' 280A'              	goto	i1l1636
  4259  0022'                    u167_20:
  4260  0022'                    i1l1642:
  4261  0022' 0805'              	movf	__Umul8_16@product+1,w
  4262  0023' 0081'              	movwf	?__Umul8_16+1
  4263  0024' 0804'              	movf	__Umul8_16@product,w
  4264  0025' 0080'              	movwf	?__Umul8_16
  4265  0026'                    i1l666:
  4266  0026' 0008               	return
  4267  0027'                    __end_of__Umul8_16:
  4268                           
  4269                           	psect	text17
  4270  0000'                    __ptext17:	
  4271 ;; *************** function ___fldiv *****************
  4272 ;; Defined at:
  4273 ;;		line 8 in file "C:\Program Files\Microchip\xc8\v2.36\pic\sources\c90\common\sprcdiv.c"
  4274 ;; Parameters:    Size  Location     Type
  4275 ;;  a               4    0[COMMON] unsigned int 
  4276 ;;  b               4    4[COMMON] unsigned int 
  4277 ;; Auto vars:     Size  Location     Type
  4278 ;;  grs             4    7[BANK0 ] unsigned long 
  4279 ;;  rem             4    0[BANK0 ] unsigned long 
  4280 ;;  new_exp         2    5[BANK0 ] int 
  4281 ;;  aexp            1   12[BANK0 ] unsigned char 
  4282 ;;  bexp            1   11[BANK0 ] unsigned char 
  4283 ;;  sign            1    4[BANK0 ] unsigned char 
  4284 ;; Return value:  Size  Location     Type
  4285 ;;                  4    0[COMMON] unsigned char 
  4286 ;; Registers used:
  4287 ;;		wreg, status,2, status,0, btemp+1
  4288 ;; Tracked objects:
  4289 ;;		On entry : 0/0
  4290 ;;		On exit  : 0/0
  4291 ;;		Unchanged: 0/0
  4292 ;; Data sizes:     COMMON   BANK0   BANK1   BANK2
  4293 ;;      Params:         8       0       0       0
  4294 ;;      Locals:         0      13       0       0
  4295 ;;      Temps:          5       0       0       0
  4296 ;;      Totals:        13      13       0       0
  4297 ;;Total ram usage:       26 bytes
  4298 ;; Hardware stack levels used: 1
  4299 ;; This function calls:
  4300 ;;		Nothing
  4301 ;; This function is called by:
  4302 ;;		_TMR0_ISR
  4303 ;; This function uses a non-reentrant model
  4304 ;;
  4305                           
  4306  0000'                    ___fldiv:	
  4307                           ;psect for function ___fldiv
  4308                           
  4309  0000'                    i1l1764:	
  4310                           ;incstack = 0
  4311                           ; Regs used in ___fldiv: [wreg+status,2+status,0+btemp+1]
  4312                           
  4313  0000' 0807'              	movf	___fldiv@b+3,w
  4314  0001' 3980               	andlw	128
  4315  0002' 0088'              	movwf	??___fldiv
  4316  0003' 0808'              	movf	??___fldiv,w
  4317  0004' 1283               	bcf	3,5	;RP0=0, select bank0
  4318  0005' 1303               	bcf	3,6	;RP1=0, select bank0
  4319  0006' 0084'              	movwf	___fldiv@sign
  4320  0007'                    i1l1766:
  4321  0007' 0807'              	movf	___fldiv@b+3,w
  4322  0008' 0088'              	movwf	??___fldiv
  4323  0009' 0708'              	addwf	??___fldiv,w
  4324  000A' 0089'              	movwf	??___fldiv+1
  4325  000B' 0809'              	movf	??___fldiv+1,w
  4326  000C' 008B'              	movwf	___fldiv@bexp
  4327  000D'                    i1l1768:
  4328  000D' 1F86'              	btfss	___fldiv@b+2,7
  4329  000E' 2810'              	goto	u181_21
  4330  000F' 2811'              	goto	u181_20
  4331  0010'                    u181_21:
  4332  0010' 2812'              	goto	i1l1772
  4333  0011'                    u181_20:
  4334  0011'                    i1l1770:
  4335  0011' 140B'              	bsf	___fldiv@bexp,0
  4336  0012'                    i1l1772:
  4337  0012' 080B'              	movf	___fldiv@bexp,w
  4338  0013' 1903               	btfsc	3,2
  4339  0014' 2816'              	goto	u182_21
  4340  0015' 2817'              	goto	u182_20
  4341  0016'                    u182_21:
  4342  0016' 2827'              	goto	i1l1782
  4343  0017'                    u182_20:
  4344  0017'                    i1l1774:
  4345  0017' 0A0B'              	incf	___fldiv@bexp,w
  4346  0018' 1D03               	btfss	3,2
  4347  0019' 281B'              	goto	u183_21
  4348  001A' 281C'              	goto	u183_20
  4349  001B'                    u183_21:
  4350  001B' 2824'              	goto	i1l1778
  4351  001C'                    u183_20:
  4352  001C'                    i1l1776:
  4353  001C' 3000               	movlw	0
  4354  001D' 0087'              	movwf	___fldiv@b+3
  4355  001E' 3000               	movlw	0
  4356  001F' 0086'              	movwf	___fldiv@b+2
  4357  0020' 3000               	movlw	0
  4358  0021' 0085'              	movwf	___fldiv@b+1
  4359  0022' 3000               	movlw	0
  4360  0023' 0084'              	movwf	___fldiv@b
  4361  0024'                    i1l1778:
  4362  0024' 1786'              	bsf	___fldiv@b+2,7
  4363  0025'                    i1l1780:
  4364  0025' 0187'              	clrf	___fldiv@b+3
  4365  0026' 282F'              	goto	i1l1784
  4366  0027'                    i1l1782:
  4367  0027' 3000               	movlw	0
  4368  0028' 0087'              	movwf	___fldiv@b+3
  4369  0029' 3000               	movlw	0
  4370  002A' 0086'              	movwf	___fldiv@b+2
  4371  002B' 3000               	movlw	0
  4372  002C' 0085'              	movwf	___fldiv@b+1
  4373  002D' 3000               	movlw	0
  4374  002E' 0084'              	movwf	___fldiv@b
  4375  002F'                    i1l1784:
  4376  002F' 0803'              	movf	___fldiv@a+3,w
  4377  0030' 3980               	andlw	128
  4378  0031' 0088'              	movwf	??___fldiv
  4379  0032' 0808'              	movf	??___fldiv,w
  4380  0033' 0684'              	xorwf	___fldiv@sign,f
  4381  0034'                    i1l1786:
  4382  0034' 0803'              	movf	___fldiv@a+3,w
  4383  0035' 0088'              	movwf	??___fldiv
  4384  0036' 0708'              	addwf	??___fldiv,w
  4385  0037' 0089'              	movwf	??___fldiv+1
  4386  0038' 0809'              	movf	??___fldiv+1,w
  4387  0039' 008C'              	movwf	___fldiv@aexp
  4388  003A'                    i1l1788:
  4389  003A' 1F82'              	btfss	___fldiv@a+2,7
  4390  003B' 283D'              	goto	u184_21
  4391  003C' 283E'              	goto	u184_20
  4392  003D'                    u184_21:
  4393  003D' 283F'              	goto	i1l1792
  4394  003E'                    u184_20:
  4395  003E'                    i1l1790:
  4396  003E' 140C'              	bsf	___fldiv@aexp,0
  4397  003F'                    i1l1792:
  4398  003F' 080C'              	movf	___fldiv@aexp,w
  4399  0040' 1903               	btfsc	3,2
  4400  0041' 2843'              	goto	u185_21
  4401  0042' 2844'              	goto	u185_20
  4402  0043'                    u185_21:
  4403  0043' 2854'              	goto	i1l1802
  4404  0044'                    u185_20:
  4405  0044'                    i1l1794:
  4406  0044' 0A0C'              	incf	___fldiv@aexp,w
  4407  0045' 1D03               	btfss	3,2
  4408  0046' 2848'              	goto	u186_21
  4409  0047' 2849'              	goto	u186_20
  4410  0048'                    u186_21:
  4411  0048' 2851'              	goto	i1l1798
  4412  0049'                    u186_20:
  4413  0049'                    i1l1796:
  4414  0049' 3000               	movlw	0
  4415  004A' 0083'              	movwf	___fldiv@a+3
  4416  004B' 3000               	movlw	0
  4417  004C' 0082'              	movwf	___fldiv@a+2
  4418  004D' 3000               	movlw	0
  4419  004E' 0081'              	movwf	___fldiv@a+1
  4420  004F' 3000               	movlw	0
  4421  0050' 0080'              	movwf	___fldiv@a
  4422  0051'                    i1l1798:
  4423  0051' 1782'              	bsf	___fldiv@a+2,7
  4424  0052'                    i1l1800:
  4425  0052' 0183'              	clrf	___fldiv@a+3
  4426  0053' 285C'              	goto	i1l605
  4427  0054'                    i1l1802:
  4428  0054' 3000               	movlw	0
  4429  0055' 0083'              	movwf	___fldiv@a+3
  4430  0056' 3000               	movlw	0
  4431  0057' 0082'              	movwf	___fldiv@a+2
  4432  0058' 3000               	movlw	0
  4433  0059' 0081'              	movwf	___fldiv@a+1
  4434  005A' 3000               	movlw	0
  4435  005B' 0080'              	movwf	___fldiv@a
  4436  005C'                    i1l605:
  4437  005C' 0803'              	movf	___fldiv@a+3,w
  4438  005D' 0402'              	iorwf	___fldiv@a+2,w
  4439  005E' 0401'              	iorwf	___fldiv@a+1,w
  4440  005F' 0400'              	iorwf	___fldiv@a,w
  4441  0060' 1D03               	skipz
  4442  0061' 2863'              	goto	u187_21
  4443  0062' 2864'              	goto	u187_20
  4444  0063'                    u187_21:
  4445  0063' 287D'              	goto	i1l1812
  4446  0064'                    u187_20:
  4447  0064'                    i1l1804:
  4448  0064' 3000               	movlw	0
  4449  0065' 0087'              	movwf	___fldiv@b+3
  4450  0066' 3000               	movlw	0
  4451  0067' 0086'              	movwf	___fldiv@b+2
  4452  0068' 3000               	movlw	0
  4453  0069' 0085'              	movwf	___fldiv@b+1
  4454  006A' 3000               	movlw	0
  4455  006B' 0084'              	movwf	___fldiv@b
  4456  006C' 3080               	movlw	128
  4457  006D' 0486'              	iorwf	___fldiv@b+2,f
  4458  006E' 307F               	movlw	127
  4459  006F' 0487'              	iorwf	___fldiv@b+3,f
  4460  0070'                    i1l1806:
  4461  0070' 0804'              	movf	___fldiv@sign,w
  4462  0071' 0088'              	movwf	??___fldiv
  4463  0072' 0808'              	movf	??___fldiv,w
  4464  0073' 0487'              	iorwf	___fldiv@b+3,f
  4465  0074'                    i1l1808:
  4466  0074' 0807'              	movf	___fldiv@b+3,w
  4467  0075' 0083'              	movwf	?___fldiv+3
  4468  0076' 0806'              	movf	___fldiv@b+2,w
  4469  0077' 0082'              	movwf	?___fldiv+2
  4470  0078' 0805'              	movf	___fldiv@b+1,w
  4471  0079' 0081'              	movwf	?___fldiv+1
  4472  007A' 0804'              	movf	___fldiv@b,w
  4473  007B' 0080'              	movwf	?___fldiv
  4474  007C' 29E2'              	goto	i1l607
  4475  007D'                    i1l1812:
  4476  007D' 080B'              	movf	___fldiv@bexp,w
  4477  007E' 1D03               	btfss	3,2
  4478  007F' 2881'              	goto	u188_21
  4479  0080' 2882'              	goto	u188_20
  4480  0081'                    u188_21:
  4481  0081' 288B'              	goto	i1l1818
  4482  0082'                    u188_20:
  4483  0082'                    i1l1814:
  4484  0082' 3000               	movlw	0
  4485  0083' 0083'              	movwf	?___fldiv+3
  4486  0084' 3000               	movlw	0
  4487  0085' 0082'              	movwf	?___fldiv+2
  4488  0086' 3000               	movlw	0
  4489  0087' 0081'              	movwf	?___fldiv+1
  4490  0088' 3000               	movlw	0
  4491  0089' 0080'              	movwf	?___fldiv
  4492  008A' 29E2'              	goto	i1l607
  4493  008B'                    i1l1818:
  4494  008B' 080B'              	movf	___fldiv@bexp,w
  4495  008C' 0088'              	movwf	??___fldiv
  4496  008D' 0189'              	clrf	??___fldiv+1
  4497  008E' 0809'              	movf	??___fldiv+1,w
  4498  008F' 008B'              	movwf	??___fldiv+3
  4499  0090' 080C'              	movf	___fldiv@aexp,w
  4500  0091' 0208'              	subwf	??___fldiv,w
  4501  0092' 008A'              	movwf	??___fldiv+2
  4502  0093' 1C03               	skipc
  4503  0094' 038B'              	decf	??___fldiv+3,f
  4504  0095' 080A'              	movf	??___fldiv+2,w
  4505  0096' 3E7F               	addlw	127
  4506  0097' 0085'              	movwf	___fldiv@new_exp
  4507  0098' 080B'              	movf	??___fldiv+3,w
  4508  0099' 1803               	skipnc
  4509  009A' 3E01               	addlw	1
  4510  009B' 3E00               	addlw	0
  4511  009C' 0086'              	movwf	___fldiv@new_exp+1
  4512  009D'                    i1l1820:
  4513  009D' 0807'              	movf	___fldiv@b+3,w
  4514  009E' 0083'              	movwf	___fldiv@rem+3
  4515  009F' 0806'              	movf	___fldiv@b+2,w
  4516  00A0' 0082'              	movwf	___fldiv@rem+2
  4517  00A1' 0805'              	movf	___fldiv@b+1,w
  4518  00A2' 0081'              	movwf	___fldiv@rem+1
  4519  00A3' 0804'              	movf	___fldiv@b,w
  4520  00A4' 0080'              	movwf	___fldiv@rem
  4521  00A5'                    i1l1822:
  4522  00A5' 3000               	movlw	0
  4523  00A6' 0087'              	movwf	___fldiv@b+3
  4524  00A7' 3000               	movlw	0
  4525  00A8' 0086'              	movwf	___fldiv@b+2
  4526  00A9' 3000               	movlw	0
  4527  00AA' 0085'              	movwf	___fldiv@b+1
  4528  00AB' 3000               	movlw	0
  4529  00AC' 0084'              	movwf	___fldiv@b
  4530  00AD'                    i1l1824:
  4531  00AD' 3000               	movlw	0
  4532  00AE' 008A'              	movwf	___fldiv@grs+3
  4533  00AF' 3000               	movlw	0
  4534  00B0' 0089'              	movwf	___fldiv@grs+2
  4535  00B1' 3000               	movlw	0
  4536  00B2' 0088'              	movwf	___fldiv@grs+1
  4537  00B3' 3000               	movlw	0
  4538  00B4' 0087'              	movwf	___fldiv@grs
  4539  00B5'                    i1l1826:
  4540  00B5' 018C'              	clrf	___fldiv@aexp
  4541  00B6' 2907'              	goto	i1l1846
  4542  00B7'                    i1l1828:
  4543  00B7' 080C'              	movf	___fldiv@aexp,w
  4544  00B8' 1903               	btfsc	3,2
  4545  00B9' 28BB'              	goto	u189_21
  4546  00BA' 28BC'              	goto	u189_20
  4547  00BB'                    u189_21:
  4548  00BB' 28DC'              	goto	i1l1838
  4549  00BC'                    u189_20:
  4550  00BC'                    i1l1830:
  4551  00BC' 3001               	movlw	1
  4552  00BD' 0088'              	movwf	??___fldiv
  4553  00BE'                    u190_25:
  4554  00BE' 1003               	clrc
  4555  00BF' 0D80'              	rlf	___fldiv@rem,f
  4556  00C0' 0D81'              	rlf	___fldiv@rem+1,f
  4557  00C1' 0D82'              	rlf	___fldiv@rem+2,f
  4558  00C2' 0D83'              	rlf	___fldiv@rem+3,f
  4559  00C3' 0B88'              	decfsz	??___fldiv,f
  4560  00C4' 28BE'              	goto	u190_25
  4561  00C5' 3001               	movlw	1
  4562  00C6' 0088'              	movwf	??___fldiv
  4563  00C7'                    u191_25:
  4564  00C7' 1003               	clrc
  4565  00C8' 0D84'              	rlf	___fldiv@b,f
  4566  00C9' 0D85'              	rlf	___fldiv@b+1,f
  4567  00CA' 0D86'              	rlf	___fldiv@b+2,f
  4568  00CB' 0D87'              	rlf	___fldiv@b+3,f
  4569  00CC' 0B88'              	decfsz	??___fldiv,f
  4570  00CD' 28C7'              	goto	u191_25
  4571  00CE'                    i1l1832:
  4572  00CE' 1F8A'              	btfss	___fldiv@grs+3,7
  4573  00CF' 28D1'              	goto	u192_21
  4574  00D0' 28D2'              	goto	u192_20
  4575  00D1'                    u192_21:
  4576  00D1' 28D3'              	goto	i1l1836
  4577  00D2'                    u192_20:
  4578  00D2'                    i1l1834:
  4579  00D2' 1404'              	bsf	___fldiv@b,0
  4580  00D3'                    i1l1836:
  4581  00D3' 3001               	movlw	1
  4582  00D4' 0088'              	movwf	??___fldiv
  4583  00D5'                    u193_25:
  4584  00D5' 1003               	clrc
  4585  00D6' 0D87'              	rlf	___fldiv@grs,f
  4586  00D7' 0D88'              	rlf	___fldiv@grs+1,f
  4587  00D8' 0D89'              	rlf	___fldiv@grs+2,f
  4588  00D9' 0D8A'              	rlf	___fldiv@grs+3,f
  4589  00DA' 0B88'              	decfsz	??___fldiv,f
  4590  00DB' 28D5'              	goto	u193_25
  4591  00DC'                    i1l1838:
  4592  00DC' 0803'              	movf	___fldiv@a+3,w
  4593  00DD' 0203'              	subwf	___fldiv@rem+3,w
  4594  00DE' 1D03               	skipz
  4595  00DF' 28EA'              	goto	u194_25
  4596  00E0' 0802'              	movf	___fldiv@a+2,w
  4597  00E1' 0202'              	subwf	___fldiv@rem+2,w
  4598  00E2' 1D03               	skipz
  4599  00E3' 28EA'              	goto	u194_25
  4600  00E4' 0801'              	movf	___fldiv@a+1,w
  4601  00E5' 0201'              	subwf	___fldiv@rem+1,w
  4602  00E6' 1D03               	skipz
  4603  00E7' 28EA'              	goto	u194_25
  4604  00E8' 0800'              	movf	___fldiv@a,w
  4605  00E9' 0200'              	subwf	___fldiv@rem,w
  4606  00EA'                    u194_25:
  4607  00EA' 1C03               	skipc
  4608  00EB' 28ED'              	goto	u194_21
  4609  00EC' 28EE'              	goto	u194_20
  4610  00ED'                    u194_21:
  4611  00ED' 2903'              	goto	i1l1844
  4612  00EE'                    u194_20:
  4613  00EE'                    i1l1840:
  4614  00EE' 170A'              	bsf	___fldiv@grs+3,6
  4615  00EF'                    i1l1842:
  4616  00EF' 0800'              	movf	___fldiv@a,w
  4617  00F0' 0280'              	subwf	___fldiv@rem,f
  4618  00F1' 0801'              	movf	___fldiv@a+1,w
  4619  00F2' 1C03               	skipc
  4620  00F3' 0F01'              	incfsz	___fldiv@a+1,w
  4621  00F4' 28F6'              	goto	u195_25
  4622  00F5' 28F7'              	goto	u195_26
  4623  00F6'                    u195_25:
  4624  00F6' 0281'              	subwf	___fldiv@rem+1,f
  4625  00F7'                    u195_26:
  4626  00F7' 0802'              	movf	___fldiv@a+2,w
  4627  00F8' 1C03               	skipc
  4628  00F9' 0F02'              	incfsz	___fldiv@a+2,w
  4629  00FA' 28FC'              	goto	u195_27
  4630  00FB' 28FD'              	goto	u195_28
  4631  00FC'                    u195_27:
  4632  00FC' 0282'              	subwf	___fldiv@rem+2,f
  4633  00FD'                    u195_28:
  4634  00FD' 0803'              	movf	___fldiv@a+3,w
  4635  00FE' 1C03               	skipc
  4636  00FF' 0F03'              	incfsz	___fldiv@a+3,w
  4637  0100' 2902'              	goto	u195_29
  4638  0101' 2903'              	goto	u195_20
  4639  0102'                    u195_29:
  4640  0102' 0283'              	subwf	___fldiv@rem+3,f
  4641  0103'                    u195_20:
  4642  0103'                    i1l1844:
  4643  0103' 3001               	movlw	1
  4644  0104' 0088'              	movwf	??___fldiv
  4645  0105' 0808'              	movf	??___fldiv,w
  4646  0106' 078C'              	addwf	___fldiv@aexp,f
  4647  0107'                    i1l1846:
  4648  0107' 301A               	movlw	26
  4649  0108' 020C'              	subwf	___fldiv@aexp,w
  4650  0109' 1C03               	skipc
  4651  010A' 290C'              	goto	u196_21
  4652  010B' 290D'              	goto	u196_20
  4653  010C'                    u196_21:
  4654  010C' 28B7'              	goto	i1l1828
  4655  010D'                    u196_20:
  4656  010D'                    i1l1848:
  4657  010D' 0803'              	movf	___fldiv@rem+3,w
  4658  010E' 0402'              	iorwf	___fldiv@rem+2,w
  4659  010F' 0401'              	iorwf	___fldiv@rem+1,w
  4660  0110' 0400'              	iorwf	___fldiv@rem,w
  4661  0111' 1903               	skipnz
  4662  0112' 2914'              	goto	u197_21
  4663  0113' 2915'              	goto	u197_20
  4664  0114'                    u197_21:
  4665  0114' 2934'              	goto	i1l1862
  4666  0115'                    u197_20:
  4667  0115'                    i1l1850:
  4668  0115' 1407'              	bsf	___fldiv@grs,0
  4669  0116' 2934'              	goto	i1l1862
  4670  0117'                    i1l1852:
  4671  0117' 3001               	movlw	1
  4672  0118' 0088'              	movwf	??___fldiv
  4673  0119'                    u198_25:
  4674  0119' 1003               	clrc
  4675  011A' 0D84'              	rlf	___fldiv@b,f
  4676  011B' 0D85'              	rlf	___fldiv@b+1,f
  4677  011C' 0D86'              	rlf	___fldiv@b+2,f
  4678  011D' 0D87'              	rlf	___fldiv@b+3,f
  4679  011E' 0B88'              	decfsz	??___fldiv,f
  4680  011F' 2919'              	goto	u198_25
  4681  0120'                    i1l1854:
  4682  0120' 1F8A'              	btfss	___fldiv@grs+3,7
  4683  0121' 2923'              	goto	u199_21
  4684  0122' 2924'              	goto	u199_20
  4685  0123'                    u199_21:
  4686  0123' 2925'              	goto	i1l1858
  4687  0124'                    u199_20:
  4688  0124'                    i1l1856:
  4689  0124' 1404'              	bsf	___fldiv@b,0
  4690  0125'                    i1l1858:
  4691  0125' 3001               	movlw	1
  4692  0126' 0088'              	movwf	??___fldiv
  4693  0127'                    u200_25:
  4694  0127' 1003               	clrc
  4695  0128' 0D87'              	rlf	___fldiv@grs,f
  4696  0129' 0D88'              	rlf	___fldiv@grs+1,f
  4697  012A' 0D89'              	rlf	___fldiv@grs+2,f
  4698  012B' 0D8A'              	rlf	___fldiv@grs+3,f
  4699  012C' 0B88'              	decfsz	??___fldiv,f
  4700  012D' 2927'              	goto	u200_25
  4701  012E'                    i1l1860:
  4702  012E' 30FF               	movlw	255
  4703  012F' 0785'              	addwf	___fldiv@new_exp,f
  4704  0130' 1803               	skipnc
  4705  0131' 0A86'              	incf	___fldiv@new_exp+1,f
  4706  0132' 30FF               	movlw	255
  4707  0133' 0786'              	addwf	___fldiv@new_exp+1,f
  4708  0134'                    i1l1862:
  4709  0134' 1F86'              	btfss	___fldiv@b+2,7
  4710  0135' 2937'              	goto	u201_21
  4711  0136' 2938'              	goto	u201_20
  4712  0137'                    u201_21:
  4713  0137' 2917'              	goto	i1l1852
  4714  0138'                    u201_20:
  4715  0138'                    i1l1864:
  4716  0138' 018C'              	clrf	___fldiv@aexp
  4717  0139'                    i1l1866:
  4718  0139' 1F8A'              	btfss	___fldiv@grs+3,7
  4719  013A' 293C'              	goto	u202_21
  4720  013B' 293D'              	goto	u202_20
  4721  013C'                    u202_21:
  4722  013C' 2959'              	goto	i1l1874
  4723  013D'                    u202_20:
  4724  013D'                    i1l1868:
  4725  013D' 30FF               	movlw	255
  4726  013E' 0507'              	andwf	___fldiv@grs,w
  4727  013F' 0088'              	movwf	??___fldiv
  4728  0140' 30FF               	movlw	255
  4729  0141' 0508'              	andwf	___fldiv@grs+1,w
  4730  0142' 0089'              	movwf	??___fldiv+1
  4731  0143' 30FF               	movlw	255
  4732  0144' 0509'              	andwf	___fldiv@grs+2,w
  4733  0145' 008A'              	movwf	??___fldiv+2
  4734  0146' 307F               	movlw	127
  4735  0147' 050A'              	andwf	___fldiv@grs+3,w
  4736  0148' 008B'              	movwf	??___fldiv+3
  4737  0149' 080B'              	movf	??___fldiv+3,w
  4738  014A' 040A'              	iorwf	??___fldiv+2,w
  4739  014B' 0409'              	iorwf	??___fldiv+1,w
  4740  014C' 0408'              	iorwf	??___fldiv,w
  4741  014D' 1903               	skipnz
  4742  014E' 2950'              	goto	u203_21
  4743  014F' 2951'              	goto	u203_20
  4744  0150'                    u203_21:
  4745  0150' 2954'              	goto	i1l621
  4746  0151'                    u203_20:
  4747  0151'                    i1l1870:
  4748  0151' 018C'              	clrf	___fldiv@aexp
  4749  0152' 0A8C'              	incf	___fldiv@aexp,f
  4750  0153' 2959'              	goto	i1l1874
  4751  0154'                    i1l621:
  4752  0154' 1C04'              	btfss	___fldiv@b,0
  4753  0155' 2957'              	goto	u204_21
  4754  0156' 2958'              	goto	u204_20
  4755  0157'                    u204_21:
  4756  0157' 2959'              	goto	i1l1874
  4757  0158'                    u204_20:
  4758  0158' 2951'              	goto	i1l1870
  4759  0159'                    i1l1874:
  4760  0159' 080C'              	movf	___fldiv@aexp,w
  4761  015A' 1903               	btfsc	3,2
  4762  015B' 295D'              	goto	u205_21
  4763  015C' 295E'              	goto	u205_20
  4764  015D'                    u205_21:
  4765  015D' 298F'              	goto	i1l1884
  4766  015E'                    u205_20:
  4767  015E'                    i1l1876:
  4768  015E' 3001               	movlw	1
  4769  015F' 0784'              	addwf	___fldiv@b,f
  4770  0160' 3000               	movlw	0
  4771  0161' 1803               	skipnc
  4772  0162' 3001               	movlw	1
  4773  0163' 0785'              	addwf	___fldiv@b+1,f
  4774  0164' 3000               	movlw	0
  4775  0165' 1803               	skipnc
  4776  0166' 3001               	movlw	1
  4777  0167' 0786'              	addwf	___fldiv@b+2,f
  4778  0168' 3000               	movlw	0
  4779  0169' 1803               	skipnc
  4780  016A' 3001               	movlw	1
  4781  016B' 0787'              	addwf	___fldiv@b+3,f
  4782  016C'                    i1l1878:
  4783  016C' 1C07'              	btfss	___fldiv@b+3,0
  4784  016D' 296F'              	goto	u206_21
  4785  016E' 2970'              	goto	u206_20
  4786  016F'                    u206_21:
  4787  016F' 298F'              	goto	i1l1884
  4788  0170'                    u206_20:
  4789  0170'                    i1l1880:
  4790  0170' 0804'              	movf	___fldiv@b,w
  4791  0171' 0088'              	movwf	??___fldiv
  4792  0172' 0805'              	movf	___fldiv@b+1,w
  4793  0173' 0089'              	movwf	??___fldiv+1
  4794  0174' 0806'              	movf	___fldiv@b+2,w
  4795  0175' 008A'              	movwf	??___fldiv+2
  4796  0176' 0807'              	movf	___fldiv@b+3,w
  4797  0177' 008B'              	movwf	??___fldiv+3
  4798  0178' 3001               	movlw	1
  4799  0179' 008C'              	movwf	??___fldiv+4
  4800  017A'                    u207_25:
  4801  017A' 0D0B'              	rlf	??___fldiv+3,w
  4802  017B' 0C8B'              	rrf	??___fldiv+3,f
  4803  017C' 0C8A'              	rrf	??___fldiv+2,f
  4804  017D' 0C89'              	rrf	??___fldiv+1,f
  4805  017E' 0C88'              	rrf	??___fldiv,f
  4806  017F'                    u207_20:
  4807  017F' 0B8C'              	decfsz	??___fldiv+4,f
  4808  0180' 297A'              	goto	u207_25
  4809  0181' 080B'              	movf	??___fldiv+3,w
  4810  0182' 0087'              	movwf	___fldiv@b+3
  4811  0183' 080A'              	movf	??___fldiv+2,w
  4812  0184' 0086'              	movwf	___fldiv@b+2
  4813  0185' 0809'              	movf	??___fldiv+1,w
  4814  0186' 0085'              	movwf	___fldiv@b+1
  4815  0187' 0808'              	movf	??___fldiv,w
  4816  0188' 0084'              	movwf	___fldiv@b
  4817  0189'                    i1l1882:
  4818  0189' 3001               	movlw	1
  4819  018A' 0785'              	addwf	___fldiv@new_exp,f
  4820  018B' 1803               	skipnc
  4821  018C' 0A86'              	incf	___fldiv@new_exp+1,f
  4822  018D' 3000               	movlw	0
  4823  018E' 0786'              	addwf	___fldiv@new_exp+1,f
  4824  018F'                    i1l1884:
  4825  018F' 0806'              	movf	___fldiv@new_exp+1,w
  4826  0190' 3A80               	xorlw	128
  4827  0191' 00FF               	movwf	btemp+1
  4828  0192' 3080               	movlw	128
  4829  0193' 027F               	subwf	btemp+1,w
  4830  0194' 1D03               	skipz
  4831  0195' 2998'              	goto	u208_25
  4832  0196' 30FF               	movlw	255
  4833  0197' 0205'              	subwf	___fldiv@new_exp,w
  4834  0198'                    u208_25:
  4835  0198' 1C03               	skipc
  4836  0199' 299B'              	goto	u208_21
  4837  019A' 299C'              	goto	u208_20
  4838  019B'                    u208_21:
  4839  019B' 29AA'              	goto	i1l1888
  4840  019C'                    u208_20:
  4841  019C'                    i1l1886:
  4842  019C' 30FF               	movlw	255
  4843  019D' 1283               	bcf	3,5	;RP0=0, select bank0
  4844  019E' 1303               	bcf	3,6	;RP1=0, select bank0
  4845  019F' 0085'              	movwf	___fldiv@new_exp
  4846  01A0' 3000               	movlw	0
  4847  01A1' 0086'              	movwf	___fldiv@new_exp+1
  4848  01A2' 3000               	movlw	0
  4849  01A3' 0087'              	movwf	___fldiv@b+3
  4850  01A4' 3000               	movlw	0
  4851  01A5' 0086'              	movwf	___fldiv@b+2
  4852  01A6' 3000               	movlw	0
  4853  01A7' 0085'              	movwf	___fldiv@b+1
  4854  01A8' 3000               	movlw	0
  4855  01A9' 0084'              	movwf	___fldiv@b
  4856  01AA'                    i1l1888:
  4857  01AA' 1283               	bcf	3,5	;RP0=0, select bank0
  4858  01AB' 1303               	bcf	3,6	;RP1=0, select bank0
  4859  01AC' 0806'              	movf	___fldiv@new_exp+1,w
  4860  01AD' 3A80               	xorlw	128
  4861  01AE' 00FF               	movwf	btemp+1
  4862  01AF' 3080               	movlw	128
  4863  01B0' 027F               	subwf	btemp+1,w
  4864  01B1' 1D03               	skipz
  4865  01B2' 29B5'              	goto	u209_25
  4866  01B3' 3001               	movlw	1
  4867  01B4' 0205'              	subwf	___fldiv@new_exp,w
  4868  01B5'                    u209_25:
  4869  01B5' 1803               	skipnc
  4870  01B6' 29B8'              	goto	u209_21
  4871  01B7' 29B9'              	goto	u209_20
  4872  01B8'                    u209_21:
  4873  01B8' 29C6'              	goto	i1l627
  4874  01B9'                    u209_20:
  4875  01B9'                    i1l1890:
  4876  01B9' 1283               	bcf	3,5	;RP0=0, select bank0
  4877  01BA' 1303               	bcf	3,6	;RP1=0, select bank0
  4878  01BB' 0185'              	clrf	___fldiv@new_exp
  4879  01BC' 0186'              	clrf	___fldiv@new_exp+1
  4880  01BD'                    i1l1892:
  4881  01BD' 3000               	movlw	0
  4882  01BE' 0087'              	movwf	___fldiv@b+3
  4883  01BF' 3000               	movlw	0
  4884  01C0' 0086'              	movwf	___fldiv@b+2
  4885  01C1' 3000               	movlw	0
  4886  01C2' 0085'              	movwf	___fldiv@b+1
  4887  01C3' 3000               	movlw	0
  4888  01C4' 0084'              	movwf	___fldiv@b
  4889  01C5'                    i1l1894:
  4890  01C5' 0184'              	clrf	___fldiv@sign
  4891  01C6'                    i1l627:
  4892  01C6' 1283               	bcf	3,5	;RP0=0, select bank0
  4893  01C7' 1303               	bcf	3,6	;RP1=0, select bank0
  4894  01C8' 0805'              	movf	___fldiv@new_exp,w
  4895  01C9' 0088'              	movwf	??___fldiv
  4896  01CA' 0808'              	movf	??___fldiv,w
  4897  01CB' 008B'              	movwf	___fldiv@bexp
  4898  01CC'                    i1l1896:
  4899  01CC' 1C0B'              	btfss	___fldiv@bexp,0
  4900  01CD' 29CF'              	goto	u210_21
  4901  01CE' 29D0'              	goto	u210_20
  4902  01CF'                    u210_21:
  4903  01CF' 29D2'              	goto	i1l1900
  4904  01D0'                    u210_20:
  4905  01D0'                    i1l1898:
  4906  01D0' 1786'              	bsf	___fldiv@b+2,7
  4907  01D1' 29D6'              	goto	i1l629
  4908  01D2'                    i1l1900:
  4909  01D2' 307F               	movlw	127
  4910  01D3' 0088'              	movwf	??___fldiv
  4911  01D4' 0808'              	movf	??___fldiv,w
  4912  01D5' 0586'              	andwf	___fldiv@b+2,f
  4913  01D6'                    i1l629:
  4914  01D6' 080B'              	movf	___fldiv@bexp,w
  4915  01D7' 0088'              	movwf	??___fldiv
  4916  01D8' 1003               	clrc
  4917  01D9' 0C08'              	rrf	??___fldiv,w
  4918  01DA' 0089'              	movwf	??___fldiv+1
  4919  01DB' 0809'              	movf	??___fldiv+1,w
  4920  01DC' 0087'              	movwf	___fldiv@b+3
  4921  01DD' 0804'              	movf	___fldiv@sign,w
  4922  01DE' 0088'              	movwf	??___fldiv
  4923  01DF' 0808'              	movf	??___fldiv,w
  4924  01E0' 0487'              	iorwf	___fldiv@b+3,f
  4925  01E1' 2874'              	goto	i1l1808
  4926  01E2'                    i1l607:
  4927  01E2' 0008               	return
  4928  01E3'                    __end_of___fldiv:
  4929  007E                     btemp	set	126	;btemp
  4930  007E                     wtemp0	set	126
  4931                           
  4932                           	psect	idloc
  4933                           
  4934                           ;Config register IDLOC0 @ 0x2000
  4935                           ;	unspecified, using default values
  4936  2000                     	org	8192
  4937  2000  3FFF               	dw	16383
  4938                           
  4939                           ;Config register IDLOC1 @ 0x2001
  4940                           ;	unspecified, using default values
  4941  2001                     	org	8193
  4942  2001  3FFF               	dw	16383
  4943                           
  4944                           ;Config register IDLOC2 @ 0x2002
  4945                           ;	unspecified, using default values
  4946  2002                     	org	8194
  4947  2002  3FFF               	dw	16383
  4948                           
  4949                           ;Config register IDLOC3 @ 0x2003
  4950                           ;	unspecified, using default values
  4951  2003                     	org	8195
  4952  2003  3FFF               	dw	16383
  4953                           
  4954                           	psect	config
  4955                           
  4956                           ;Config register CONFIG @ 0x2007
  4957                           ;	Oscillator Selection bits
  4958                           ;	FOSC = INTOSCIO, INTOSC oscillator: I/O function on RA6/OSC2/CLKOUT pin, I/O function 
      +                          on RA7/OSC1/CLKIN
  4959                           ;	Watchdog Timer Enable bit
  4960                           ;	WDTE = OFF, WDT disabled
  4961                           ;	Power-up Timer Enable bit
  4962                           ;	PWRTE = ON, PWRT enabled
  4963                           ;	RA5/MCLR/VPP Pin Function Select bit
  4964                           ;	MCLRE = OFF, RA5/MCLR/VPP pin function is digital input, MCLR internally tied to VDD
  4965                           ;	Brown-out Detect Enable bit
  4966                           ;	BOREN = ON, BOD enabled
  4967                           ;	Low-Voltage Programming Enable bit
  4968                           ;	LVP = OFF, RB4/PGM pin has digital I/O function, HV on MCLR must be used for programmi
      +                          ng
  4969                           ;	Data EE Memory Code Protection bit
  4970                           ;	CPD = OFF, Data memory code protection off
  4971                           ;	Flash Program Memory Code Protection bit
  4972                           ;	CP = OFF, Code protection off
  4973  2007                     	org	8199
  4974  2007  3F50               	dw	16208

Data Sizes:
    Strings     3
    Constant    0
    Data        0
    BSS         18
    Persistent  0
    Stack       0

Auto Spaces:
    Space          Size  Autos    Used
    COMMON           14     14      14
    BANK0            80     31      49
    BANK1            80     31      31
    BANK2            48      0       0

Pointer List with Targets:

    UARTSendString@str	PTR const unsigned char  size(1) Largest target is 3
		 -> STR_3(CODE[3]), STR_2(CODE[3]), STR_1(CODE[3]), 


Critical Paths under _main in COMMON

    None.

Critical Paths under _TMR0_ISR in COMMON

    _TMR0_ISR->___xxtofl
    ___fltol->___fldiv
    ___flmul->___xxtofl

Critical Paths under _main in BANK0

    None.

Critical Paths under _TMR0_ISR in BANK0

    _TMR0_ISR->___flmul
    ___fltol->___fldiv

Critical Paths under _main in BANK1

    _init->_UARTInit
    _UARTInit->___lldiv
    _UARTSendString->_UARTSendChar
    _UARTReadChar->_UARTDataReady
    _Servo_8_Write->___awdiv
    ___awdiv->___wmul

Critical Paths under _TMR0_ISR in BANK1

    None.

Critical Paths under _main in BANK2

    None.

Critical Paths under _TMR0_ISR in BANK2

    None.

Call Graph Tables:

 ---------------------------------------------------------------------------------
 (Depth) Function   	        Calls       Base Space   Used Autos Params    Refs
 ---------------------------------------------------------------------------------
 (0) _main                                                58    58      0    2632
                                             23 BANK1      8     8      0
                      _Servo_8_Write
                         _Servo_Init
                      _UARTDataReady
                       _UARTReadChar
                     _UARTSendString
                               _init
 ---------------------------------------------------------------------------------
 (1) _init                                                 0     0      0     874
                           _UARTInit
 ---------------------------------------------------------------------------------
 (2) _UARTInit                                             9     4      5     874
                                             14 BANK1      9     4      5
                            ___lldiv
 ---------------------------------------------------------------------------------
 (3) ___lldiv                                             14     6      8     601
                                              0 BANK1     14     6      8
 ---------------------------------------------------------------------------------
 (1) _UARTSendString                                       5     4      1     604
                                              1 BANK1      5     4      1
                       _UARTSendChar
 ---------------------------------------------------------------------------------
 (2) _UARTSendChar                                         1     1      0      31
                                              0 BANK1      1     1      0
 ---------------------------------------------------------------------------------
 (1) _UARTReadChar                                         0     0      0       0
                      _UARTDataReady
 ---------------------------------------------------------------------------------
 (2) _UARTDataReady                                        5     3      2       0
                                              0 BANK1      5     3      2
 ---------------------------------------------------------------------------------
 (1) _Servo_Init                                           0     0      0       0
 ---------------------------------------------------------------------------------
 (1) _Servo_8_Write                                        4     4      0     972
                                             15 BANK1      4     4      0
                            ___awdiv
                             ___wmul
 ---------------------------------------------------------------------------------
 (2) ___wmul                                               6     2      4     316
                                              0 BANK1      6     2      4
 ---------------------------------------------------------------------------------
 (2) ___awdiv                                              9     5      4     625
                                              6 BANK1      9     5      4
                             ___wmul (ARG)
 ---------------------------------------------------------------------------------
 Estimated maximum stack depth 3
 ---------------------------------------------------------------------------------
 (Depth) Function   	        Calls       Base Space   Used Autos Params    Refs
 ---------------------------------------------------------------------------------
 (4) _TMR0_ISR                                             5     5      0    4393
                                             26 BANK0      5     5      0
                            ___fldiv
                            ___flmul
                            ___fltol
                           ___xxtofl
 ---------------------------------------------------------------------------------
 (5) ___xxtofl                                            14    10      4     398
                                              0 COMMON    14    10      4
 ---------------------------------------------------------------------------------
 (5) ___fltol                                             11     7      4     305
                                             13 BANK0     11     7      4
                            ___fldiv (ARG)
 ---------------------------------------------------------------------------------
 (5) ___flmul                                             26    18      8    2417
                                              0 BANK0     26    18      8
                          __Umul8_16
                           ___xxtofl (ARG)
 ---------------------------------------------------------------------------------
 (6) __Umul8_16                                            9     7      2     799
                                              0 COMMON     9     7      2
 ---------------------------------------------------------------------------------
 (5) ___fldiv                                             26    18      8    1273
                                              0 COMMON    13     5      8
                                              0 BANK0     13    13      0
 ---------------------------------------------------------------------------------
 Estimated maximum stack depth 6
 ---------------------------------------------------------------------------------

 Call Graph Graphs:

 _main (ROOT)
   _Servo_8_Write
     ___awdiv
       ___wmul (ARG)
     ___wmul
   _Servo_Init
   _UARTDataReady
   _UARTReadChar
     _UARTDataReady
   _UARTSendString
     _UARTSendChar
   _init
     _UARTInit
       ___lldiv

 _TMR0_ISR (ROOT)
   ___fldiv
   ___flmul
     __Umul8_16
     ___xxtofl (ARG)
   ___fltol
     ___fldiv (ARG)
   ___xxtofl

 Address spaces:
Name               Size   Autos  Total    Cost      Usage
BITCOMMON            E      0       0       0        0.0%
EEDATA              80      0       0       0        0.0%
NULL                 0      0       0       0        0.0%
CODE                 0      0       0       0        0.0%
COMMON               E      E       E       1      100.0%
BITSFR0              0      0       0       1        0.0%
SFR0                 0      0       0       1        0.0%
BITSFR1              0      0       0       2        0.0%
SFR1                 0      0       0       2        0.0%
STACK                0      0       0       2        0.0%
BANK0               50     1F      31       3       61.3%
BITSFR3              0      0       0       4        0.0%
SFR3                 0      0       0       4        0.0%
ABS                  0      0      5E       4        0.0%
BITBANK0            50      0       0       5        0.0%
BITSFR2              0      0       0       5        0.0%
SFR2                 0      0       0       5        0.0%
BITBANK1            50      0       0       6        0.0%
BANK1               50     1F      1F       7       38.8%
BITBANK2            30      0       0       8        0.0%
BANK2               30      0       0       9        0.0%
DATA                 0      0      5E      10        0.0%


Microchip Technology PIC Macro Assembler V2.36 build 20220127204148 
Symbol Table                                                                                   Fri Dec 09 12:57:50 2022

       UARTInit@baud_rate 000E              ___fldiv@aexp 000C              ___fldiv@bexp 000B  
                       pc 0002              ___fldiv@sign 0004                        l22 0003  
                      l25 000B                        l33 002D                        l42 000C  
                      l19 0067                        l36 000E                        l96 002E  
            ___awdiv@sign 000C                        fsr 0004       ___wmul@multiplicand 0002  
     __Umul8_16@word_mpld 0006                       l113 00A1                       l106 0078  
                     l115 00B6                       l107 007B                       l116 00BA  
                     l108 0080                       l117 00CB                       l109 0085  
                     l118 00CF                       l151 0015                       l119 00E0  
                     l154 0023                       l256 000E                       l409 0068  
                     l258 0026                       l292 0067                       fsr0 0004  
                     indf 0000              ___flmul@aexp 0012              ___flmul@bexp 0013  
            ___flmul@sign 000D              ___flmul@temp 0018              ___flmul@prod 0014  
            ___fltol@exp1 0017                      l2300 005C                      l2310 0063  
                    l2302 005F                      l2312 0066                      l2304 0060  
                    l2400 0006                      l2330 001C                      l2322 0000  
                    l2314 0003                      l2306 0061                      l2410 000F  
                    l2402 0007                      l2340 0007                      l2332 0022  
                    l2324 0004                      l2316 0007                      l2260 0012  
                    l2308 0062                      l2420 0014                      l2412 0010  
                    l2404 0008                      l2500 006C                      l2350 001B  
                    l2342 000C                      l2326 0008                      l1710 0007  
                    l2318 0000                      l2270 0041                      l2262 0015  
                    l2430 001B                      l2422 0017                      l2414 0011  
                    l2406 000B                      l2510 008A                      l2502 0074  
                    l2360 0031                      l2352 001D                      l2344 000E  
                    l2336 0000                      l2328 0015                      l2440 0003  
                    l1720 000E                      l1712 0008                      l2272 004F  
                    l2264 0022                      l2432 001C                      l2424 0018  
                    l2416 0012                      l2408 000E                      l2520 00B1  
                    l2512 009A                      l2504 007F                      l2370 0054  
                    l2362 0035                      l2354 0023                      l2346 0012  
                    l2338 0003                      l1722 000F                      l1714 0009  
                    l1706 0000                      l2274 0050                      l2266 0026  
                    l2258 0000                      l2290 0057                      l2282 0000  
                    l2434 001D                      l2426 0019                      l2418 0013  
                    l2530 00D2                      l2522 00BD                      l2514 00A4  
                    l2506 0084                      l2364 0046                      l2356 0026  
                    l2372 005A                      l2348 0017                      l1724 0011  
                    l1716 000A                      l1708 0006                      l2380 0003  
                    l2276 0059                      l2268 002F                      l2292 0058  
                    l2284 0007                      l2436 001E                      l2428 001A  
                    l2532 00D4                      l2524 00BF                      l2516 00A6  
                    l2540 00E4                      l2508 0089                      l2460 0000  
                    l2374 005F                      l2366 004C                      l2358 002D  
                    l1718 000D                      l2390 0000                      l2382 0008  
                    l2278 005F                      l2294 0059                      l2286 002E  
                    l2438 0021                      l2534 00DC                      l2526 00C7  
                    l2518 00AE                      l2470 0007                      l2462 0001  
                    l2376 0064                      l2368 004D                      l2392 0000  
                    l2384 000D                      l2296 005A                      l2288 0030  
                    l2480 001C                      l2472 0016                      l2464 0004  
                    l2394 0009                      l2386 0015                      l2298 005B  
                    l2490 002E                      l2482 0020                      l2474 0019  
                    l2466 0005                      l2458 0000                      l2388 0022  
                    l2492 003D                      l2484 0021                      l2476 001A  
                    l2468 0006                      l2398 0000                      l2494 0046  
                    l2486 0025                      l2478 001B                      l2496 0055  
                    l2488 0028                      l2578 00EC                      l2498 005D  
                    STR_1 0006                      STR_2 0006                      STR_3 0006  
                    u3000 0046                      u3001 0045                      u3020 005A  
                    u3021 0059                      u3005 0042                      u3030 005F  
                    u3110 002E                      u3031 005E                      u3015 004E  
                    u3111 002D                      u3040 0022                      u3120 003D  
                    u3041 0021                      u3121 003C                      u3050 002D  
                    u3130 0055                      u3051 002C                      u3131 0054  
                    u3060 0009                      u3140 006C                      u3061 0008  
                    u3045 001E                      u3141 006B                      u3125 0039  
                    u3150 0074                      u3151 0073                      u3135 0051  
                    u3207 000F                      u3160 007F                      u3161 007E  
                    u3145 0068                      u3170 0084                      u3171 0083  
                    u3180 0089                      u3181 0088                      u3190 009A  
                    u3191 0099                      u2810 0026                      u2811 0025  
                    u3195 0096                      u2900 0008                      u2901 0007  
                    u2805 0017                      u2830 0041                      u2831 0040  
                    u2825 0028                      u2930 0022                      u2850 005F  
                    u2931 0021                      u2915 000F                      u2851 005E  
                    u2835 003D                      u2940 0007                      u2860 0007  
                    u2941 0006                      u2925 0016                      u2845 0051  
                    u2861 0006                      u2950 0012                      u2790 0012  
                    u2870 0015                      u2951 0011                      u2791 0011  
                    u2960 0023                      u2880 003E                      u2961 0022  
                    u2890 0007                      u2891 0006                      u2875 0010  
                    u2980 0035                      u2981 0034                      u2885 0039  
                    u2975 0027                      u2995 0036                      _TMR0 0001  
                    _main 0000                      _init 0000                      btemp 007E  
                    start 0000*          ___fldiv@new_exp 0005             ___fltol@sign1 0016  
            main@contador 001D                     ?_main 0000                     ?_init 0000  
         __end_of___fldiv 01E3           __end_of___awdiv 0069           __end_of___flmul 033D  
         __end_of___fltol 007C           __end_of___lldiv 0068           ___awdiv@divisor 0006  
                   _T1CON 0010                     i1l170 007D                     i1l168 0078  
                   i1l442 007B                     i1l452 007B                     i1l621 0154  
                   i1l605 005C                     i1l702 0083                     i1l607 01E2  
                   i1l703 008F                     i1l449 0066                     i1l627 01C6  
                   i1l651 02A8                     i1l629 01D6                     i1l645 033C  
                   i1l664 0014                     i1l657 0330                     i1l666 0026  
                   i1l691 00B9                     i1l695 0067                     i1l689 0022  
         ___awdiv@counter 000B                     _RCREG 001A                     _TMR1H 000F  
                   _TMR1L 000E                     _SPBRG 0099                     _PORTB 0006  
                   _TXREG 0019          __end_of_UARTInit 0068          __end_of_TMR0_ISR 0086  
                   pclath 000A                     status 0003                     wtemp0 007E  
         __initialization 0000              __end_of_main 0101              __end_of_init 002F  
                  ??_main 0017                    ??_init 001F             main@detect_on 001B  
   __end_of_UARTDataReady 000F                    _CCPR1H 0016                    _CCPR1L 0015  
        ___awdiv@dividend 0008                    i1l2000 0282                    i1l2010 02A5  
                  i1l2002 0288                    i1l2020 02C4                    i1l2004 028C  
                  i1l2030 030A                    i1l2022 02DD                    i1l2014 02AD  
                  i1l2006 028D                    i1l2040 0329                    i1l2032 0314  
                  i1l2016 02B2                    i1l2024 02E3                    i1l2008 0291  
                  i1l2200 0008                    i1l2042 0334                    i1l2034 0316  
                  i1l2026 02F0                    i1l2018 02C0                    i1l2050 000A  
                  i1l2202 0009                    i1l2210 0052                    i1l2036 0324  
                  i1l2028 02FB                    i1l2060 0038                    i1l2052 001A  
                  i1l2220 0076                    i1l2212 0056                    i1l2204 000A  
                  i1l2038 0328                    i1l2070 006E                    i1l2062 0045  
                  i1l2054 002A                    i1l2046 0001                    i1l2222 0079  
                  i1l2214 005E                    i1l2206 002F                    i1l2080 00A7  
                  i1l2072 0079                    i1l2064 004C                    i1l2048 0006  
                  i1l2224 007B                    i1l2216 0067                    i1l2208 0051  
                  i1l2082 00AC                    i1l2074 007D                    i1l2066 0050  
                  i1l2058 0033                    i1l2226 007C                    i1l2218 0069  
                  i1l2084 00B0                    i1l2076 0087                    i1l2068 005E  
                  u200_25 0127                    i1l2086 00B1                    i1l2078 0091  
                  u201_20 0138                    i1l1800 0052                    i1l1640 001D  
                  i1l1632 0001                    u201_21 0137                    i1l1802 0054  
                  i1l1642 0022                    i1l1634 0003                    i1l1730 000D  
                  i1l1900 01D2                    i1l1820 009D                    i1l1804 0064  
                  i1l1812 007D                    i1l1636 000A                    i1l1740 0034  
                  i1l2196 0000                    i1l1830 00BC                    i1l1822 00A5  
                  i1l1814 0082                    i1l1806 0070                    i1l1638 000E  
                  i1l1910 000D                    i1l1750 0042                    i1l1742 0036  
                  i1l1734 0016                    i1l2198 0004                    u210_20 01D0  
                  u202_20 013D                    i1l1840 00EE                    i1l1832 00CE  
                  i1l1824 00AD                    i1l1808 0074                    i1l1920 0024  
                  i1l1912 0011                    i1l1760 006B                    i1l1744 003A  
                  i1l1752 0054                    i1l1736 002B                    i1l1728 0000  
                  u210_21 01CF                    u202_21 013C                    i1l1850 0115  
                  i1l1842 00EF                    i1l1834 00D2                    i1l1826 00B5  
                  i1l1818 008B                    i1l1770 0011                    i1l1930 003D  
                  i1l1922 0026                    i1l1914 0012                    i1l1906 0000  
                  i1l1762 0070                    i1l1738 002C                    i1l1860 012E  
                  i1l1852 0117                    i1l1844 0103                    i1l1836 00D3  
                  i1l1828 00B7                    i1l1780 0025                    i1l1772 0012  
                  i1l1764 0000                    i1l1940 0052                    i1l1932 003E  
                  i1l1924 002E                    i1l1916 0017                    i1l1908 0007  
                  i1l1870 0151                    i1l1854 0120                    i1l1862 0134  
                  i1l1838 00DC                    i1l1846 0107                    i1l1790 003E  
                  i1l1774 0017                    i1l1782 0027                    i1l1766 0007  
                  i1l1950 006D                    i1l1942 005A                    i1l1934 0043  
                  i1l1926 0033                    i1l1918 001C                    i1l1758 005B  
                  i1l1880 0170                    u203_20 0151                    i1l1864 0138  
                  i1l1856 0124                    i1l1848 010D                    i1l1792 003F  
                  i1l1784 002F                    i1l1776 001C                    i1l1768 000D  
                  i1l1960 00E3                    i1l1952 0079                    i1l1944 005F  
                  i1l1936 0048                    i1l1928 0039                    u211_20 0011  
                  u203_21 0150                    u211_21 0010                    i1l1890 01B9  
                  i1l1882 0189                    i1l1874 0159                    i1l1866 0139  
                  i1l1858 0125                    i1l1794 0044                    i1l1786 0034  
                  i1l1778 0024                    i1l1970 014D                    i1l1962 00FF  
                  i1l1954 0086                    i1l1946 0064                    i1l1938 0050  
                  i1l1892 01BD                    i1l1876 015E                    i1l1884 018F  
                  i1l1868 013D                    i1l1796 0049                    i1l1788 003A  
                  i1l1980 01D1                    i1l1972 0159                    i1l1964 011B  
                  i1l1956 009F                    i1l1894 01C5                    i1l1886 019C  
                  i1l1878 016C                    i1l1798 0051                    i1l1990 025D  
                  i1l1982 01DD                    i1l1974 0176                    i1l1966 0124  
                  i1l1958 00BB                    i1l1896 01CC                    i1l1888 01AA  
                  u204_20 0158                    i1l1992 026B                    i1l1984 0206  
                  i1l1976 018B                    i1l1968 0130                    u212_20 0017  
                  u204_21 0157                    u220_21 00C9                    u212_21 0016  
                  i1l1898 01D0                    i1l1994 0274                    i1l1986 022C  
                  i1l1978 01A8                    u220_22 00D0                    u220_23 00D7  
                  i1l1996 0278                    i1l1988 0254                    i1l1998 0279  
                  u205_20 015E                    u213_20 001C                    u205_21 015D  
                  u221_21 00F1                    u213_21 001B                    u221_22 00F8  
                  u221_23 00FF                    u206_20 0170                    u230_20 0212  
                  u214_20 003D                    u206_21 016F                    u222_21 010D  
                  u214_21 003C                    u222_22 0114                    u222_23 011B  
                  u230_25 020D                    u207_20 017F                    u215_20 0043  
                  u231_21 021E                    u215_21 0042                    u231_22 0225  
                  u231_23 022C                    u207_25 017A                    u223_25 011D  
                  u208_20 019C                    u240_20 02A5                    u232_20 023A  
                  u216_20 0048                    u208_21 019B                    u240_21 02A4  
                  u224_21 013F                    u216_21 0047                    u224_22 0146  
                  u224_23 014D                    u208_25 0198                    u232_25 0235  
                  u209_20 01B9                    u241_20 02AC                    u217_20 005F  
                  _INTCON 000B                    u209_21 01B8                    u241_21 02AB  
                  u233_21 0246                    u225_21 0168                    u217_21 005E  
                  u233_22 024D                    u225_22 016F                    u233_23 0254  
                  u225_23 0176                    u209_25 01B5                    u242_20 02B2  
                  u218_20 0064                    u250_20 002A                    u242_21 02B1  
                  u218_21 0063                    u250_21 0029                    u234_25 0256  
                  u226_25 0178                    u243_20 02C4                    u171_20 000D  
                  u243_21 02C3                    u227_21 019A                    u219_21 00AD  
                  u171_21 000C                    u227_22 01A1                    u219_22 00B4  
                  u227_23 01A8                    u219_23 00BB                    u235_25 026D  
                  u251_25 003D                    u244_20 02D3                    u236_20 0278  
                  u180_20 0070                    u172_20 0024                    u260_20 00AC  
                  u252_20 004B                    u236_21 0277                    u228_21 01C3  
                  u180_21 006F                    u260_21 00AB                    u252_21 004A  
                  u228_22 01CA                    u228_23 01D1                    u244_25 02CE  
                  u172_25 001F                    u181_20 0011                    u165_20 000E  
                  u245_20 02F0                    u173_20 003A                    u261_20 00B0  
                  u181_21 0010                    u165_21 000D                    u245_21 02EF  
                  u229_21 01EC                    u173_21 0039                    u261_21 00AF  
                  u229_22 01F3                    u229_23 01FA                    u245_25 02EC  
                  u237_25 027B                    u253_25 005F                    u182_20 0017  
                  u246_20 030A                    u238_20 028C                    u174_20 0041  
                  u254_20 006D                    u182_21 0016                    u246_21 0309  
                  u238_21 028B                    u174_21 0040                    u254_21 006C  
                  u190_25 00BE                    u166_25 0015                    u246_25 0306  
                  u183_20 001C                    u167_20 0022                    u247_20 0328  
                  u239_20 0291                    u183_21 001B                    u167_21 0021  
                  u247_21 0327                    u239_21 0290                    u191_25 00C7  
                  u175_25 0043                    u255_25 0072                    u192_20 00D2  
                  u184_20 003E                    u176_20 0053                    u256_20 007D  
                  u248_20 0006                    u192_21 00D1                    u184_21 003D  
                  u176_21 0052                    u256_21 007C                    u248_21 0005  
                  u185_20 0044                    u177_20 005A                    u257_20 0083  
                  u249_20 000A                    u185_21 0043                    u177_21 0059  
                  u257_21 0082                    u249_21 0009                    u193_25 00D5  
                  u194_20 00EE                    u186_20 0049                    u258_20 0087  
                  u194_21 00ED                    u186_21 0048                    u258_21 0086  
                  u194_25 00EA                    u178_25 005D                    u195_20 0103  
                  u187_20 0064                    u179_20 006B                    u259_20 009C  
                  u275_20 0004                    u187_21 0063                    u179_21 006A  
                  u275_21 0003                    u195_25 00F6                    u259_25 0097  
                  u195_26 00F7                    u195_27 00FC                    u196_20 010D  
                  u195_28 00FD                    u188_20 0082                    u276_20 0056  
                  u196_21 010C                    u195_29 0102                    u188_21 0081  
                  u276_21 0055                    u197_20 0115                    u189_20 00BC  
                  u277_20 0067                    u197_21 0114                    u189_21 00BB  
                  u277_21 0066                    u278_20 0076                    u278_21 0075  
                  u198_25 0119                    u278_25 0072                    u199_20 0124  
                  u199_21 0123          __end_of___xxtofl 00BA     __end_of_Servo_8_Write 0024  
                  ___wmul 0000                 ??___fldiv 0008                 ??___awdiv 000A  
               ??___flmul 0008                    _data_s 0000                 ??___fltol 0011  
               ??___lldiv 0008                _Servo_Init 0000          ___awdiv@quotient 000D  
                  saved_w 007E              ___xxtofl@arg 000A              ___xxtofl@exp 0009  
            ___xxtofl@val 0000   __end_of__initialization 0005                ___fltol@f1 000D  
          __pcstackCOMMON 0000                 ?_UARTInit 000E                 ?_TMR0_ISR 0000  
          _OPTION_REGbits 0081  UARTSendString@max_length 0001                __pbssBANK0 0000  
       __end_of__Umul8_16 0027                __pmaintext 0000                   ?___wmul 0000  
              ??_UARTInit 0013                ??_TMR0_ISR 001A                __pintentry 0000  
             ?_Servo_Init 0000                   _CCP1CON 0017                 ?___xxtofl 0000  
           ?_UARTReadChar 0000                __stringtab 0000             ?_UARTSendChar 0000  
              _frecuencia 0008                   ___fldiv 0000                   ___awdiv 0000  
                 ___flmul 0000                   ___fltol 0000                   ___lldiv 0000  
               _CMCONbits 001F            _UARTSendString 0000                   __ptext1 0000  
                 __ptext2 0000                   __ptext3 0000                   __ptext4 0000  
                 __ptext5 0000                   __ptext6 0000                   __ptext7 0000  
                 __ptext8 0000                   __ptext9 0000                   _cont_sr 000C  
               _T1CONbits 0010                ??___xxtofl 0004                   _periodo 000E  
          ??_UARTReadChar 001F                   clrloop0 0001      end_of_initialization 0005  
          ??_UARTSendChar 001F           ___lldiv@divisor 0000           ___lldiv@counter 000D  
               _RCSTAbits 0018    __end_of_UARTSendString 002E                 _PORTAbits 0005  
               _PORTBbits 0006             ___xxtofl@sign 0008                 _TRISAbits 0085  
               _TRISBbits 0086               ___fldiv@grs 0007               ___fldiv@rem 0000  
             ___flmul@grs 000E                 _TXSTAbits 0098           ?_UARTSendString 0001  
          __end_of___wmul 0027       start_initialization 0000      __end_of_UARTReadChar 000D  
                ??___wmul 001F                 __Umul8_16 0000              ??_Servo_Init 001F  
    __end_of_UARTSendChar 000C                 ___fldiv@a 0000                 ___fldiv@b 0004  
               ___flmul@a 0004                 ___flmul@b 0000                 ___latbits 0000  
           __pcstackBANK0 0000             __pcstackBANK1 0000             _UARTDataReady 0000  
      __end_of_Servo_Init 0016             _Servo_8_Write 0000             UARTSendChar@c 0000  
                ?___fldiv 0000                  ?___awdiv 0006                  ?___flmul 0000  
                ?___fltol 000D                  ?___lldiv 0000                ?__Umul8_16 0000  
               __pstrings 0000            ?_UARTDataReady 0000         interrupt_function 0000  
          ___wmul@product 0004                 clear_ram0 0000                  _PIE1bits 008C  
         UARTSendString@i 0004            ?_Servo_8_Write 0000                  _PIR1bits 000C  
                _UARTInit 0000                  _TMR0_ISR 0000               __stringbase 0005  
       ___wmul@multiplier 0000                 main@letra 001A          ??_UARTSendString 0002  
        Servo_8_Write@ang 0012              UARTInit@BRGH 0012               ??__Umul8_16 0002  
      __end_of__stringtab 0006           ??_UARTDataReady 0002                  ___xxtofl 0000  
                __ptext10 0000                  __ptext11 0000                  __ptext12 0000  
                __ptext13 0000                  __ptext14 0000                  __ptext15 0000  
                __ptext16 0000                  __ptext17 0000              _UARTReadChar 0000  
            _UARTSendChar 0000           ??_Servo_8_Write 000F                _INTCONbits 000B  
       UARTSendString@str 0003                  intlevel1 0000*         ___lldiv@dividend 0004  
               stringcode 0000               _valor_pasos 000A    __Umul8_16@multiplicand 0000  
        ___lldiv@quotient 0009                  stringdir 0000                  stringtab 0000  
    __Umul8_16@multiplier 0008         __Umul8_16@product 0004  
